
dtm.elf:     file format elf32-littleriscv
dtm.elf
architecture: riscv:rv32, flags 0x00000112:
EXEC_P, HAS_SYMS, D_PAGED
start address 0x00000000

Program Header:
    LOAD off    0x00001000 vaddr 0x00000000 paddr 0x00000000 align 2**12
         filesz 0x00000004 memsz 0x00000004 flags r-x
    LOAD off    0x00002000 vaddr 0x20000000 paddr 0x00000004 align 2**12
         filesz 0x00000b28 memsz 0x00000b28 flags r-x
    LOAD off    0x00002b2c vaddr 0x00000b2c paddr 0x00000b2c align 2**12
         filesz 0x00001664 memsz 0x00001664 flags r-x
    LOAD off    0x00004b28 vaddr 0x20000b28 paddr 0x00002190 align 2**12
         filesz 0x00000068 memsz 0x0000009c flags rw-
    LOAD off    0x00004e00 vaddr 0x20007e00 paddr 0x20007e00 align 2**12
         filesz 0x00000000 memsz 0x00000200 flags rw-

Sections:
Idx Name            Size      VMA       LMA       File off  Algn  Flags
  0 .init           00000004  00000000  00000000  00001000  2**1  CONTENTS, ALLOC, LOAD, READONLY, CODE
  1 .highcodelalign 00000000  00000004  00000004  00004b90  2**0  CONTENTS
  2 .highcode       00000b28  20000000  00000004  00002000  2**1  CONTENTS, ALLOC, LOAD, READONLY, CODE
  3 .text           00001664  00000b2c  00000b2c  00002b2c  2**2  CONTENTS, ALLOC, LOAD, READONLY, CODE
  4 .fini           00000000  00002190  00002190  00004b90  2**0  CONTENTS, ALLOC, LOAD, CODE
  5 .dalign         00000000  20000b28  20000b28  00004b90  2**0  CONTENTS
  6 .dlalign        00000000  00002190  00002190  00004b90  2**0  CONTENTS
  7 .data           00000068  20000b28  00002190  00004b28  2**2  CONTENTS, ALLOC, LOAD, DATA
  8 .bss            00000034  20000b90  000021f8  00004b90  2**2  ALLOC
  9 .stack          00000200  20007e00  20007e00  00004e00  2**0  ALLOC
 10 .debug_info     0000a844  00000000  00000000  00004b90  2**0  CONTENTS, READONLY, DEBUGGING
 11 .debug_abbrev   00001c0d  00000000  00000000  0000f3d4  2**0  CONTENTS, READONLY, DEBUGGING
 12 .debug_loc      000014e9  00000000  00000000  00010fe1  2**0  CONTENTS, READONLY, DEBUGGING
 13 .debug_aranges  000002f0  00000000  00000000  000124d0  2**3  CONTENTS, READONLY, DEBUGGING
 14 .debug_ranges   000003d0  00000000  00000000  000127c0  2**3  CONTENTS, READONLY, DEBUGGING
 15 .debug_line     00005c28  00000000  00000000  00012b90  2**0  CONTENTS, READONLY, DEBUGGING
 16 .debug_str      00001902  00000000  00000000  000187b8  2**0  CONTENTS, READONLY, DEBUGGING
 17 .comment        00000033  00000000  00000000  0001a0ba  2**0  CONTENTS, READONLY
 18 .debug_frame    00000dc0  00000000  00000000  0001a0f0  2**2  CONTENTS, READONLY, DEBUGGING
 19 .stab           00000084  00000000  00000000  0001aeb0  2**2  CONTENTS, READONLY, DEBUGGING
 20 .stabstr        00000117  00000000  00000000  0001af34  2**0  CONTENTS, READONLY, DEBUGGING
SYMBOL TABLE:
00000000 l    d  .init	00000000 .init
00000004 l    d  .highcodelalign	00000000 .highcodelalign
20000000 l    d  .highcode	00000000 .highcode
00000b2c l    d  .text	00000000 .text
00002190 l    d  .fini	00000000 .fini
20000b28 l    d  .dalign	00000000 .dalign
00002190 l    d  .dlalign	00000000 .dlalign
20000b28 l    d  .data	00000000 .data
20000b90 l    d  .bss	00000000 .bss
20007e00 l    d  .stack	00000000 .stack
00000000 l    d  .debug_info	00000000 .debug_info
00000000 l    d  .debug_abbrev	00000000 .debug_abbrev
00000000 l    d  .debug_loc	00000000 .debug_loc
00000000 l    d  .debug_aranges	00000000 .debug_aranges
00000000 l    d  .debug_ranges	00000000 .debug_ranges
00000000 l    d  .debug_line	00000000 .debug_line
00000000 l    d  .debug_str	00000000 .debug_str
00000000 l    d  .comment	00000000 .comment
00000000 l    d  .debug_frame	00000000 .debug_frame
00000000 l    d  .stab	00000000 .stab
00000000 l    d  .stabstr	00000000 .stabstr
00000000 l    df *ABS*	00000000 ./Startup/startup_CH583.o
20000000 l       .highcode	00000000 _vector_base
00000000 l    df *ABS*	00000000 CH58x_sys.c
20000b88 l     O .data	00000004 curbrk.4072
00000000 l    df *ABS*	00000000 RTC.c
00000000 l    df *ABS*	00000000 app_usb.c
00000000 l    df *ABS*	00000000 uart.c
00001476 l     F .text	0000000e atomic_set
20000ba8 l     O .bss	00000004 uart_buf
00000000 l    df *ABS*	00000000 ISP583.c
20000712 l       .highcode	00000000 .loop18
20000720 l       .highcode	00000000 .loop29
2000072e l       .highcode	00000000 .loop40
200009ba l       .highcode	00000000 .loop402
00000000 l    df *ABS*	00000000 CH58x_gpio.c
00000000 l    df *ABS*	00000000 CH58x_uart1.c
00000000 l    df *ABS*	00000000 buf.c
00000000 l    df *ABS*	00000000 main.c
00000000 l    df *ABS*	00000000 memcpy.c
00000000 l    df *ABS*	00000000 puts.c
00000000 l    df *ABS*	00000000 wbuf.c
00000000 l    df *ABS*	00000000 wsetup.c
00000000 l    df *ABS*	00000000 fflush.c
00000000 l    df *ABS*	00000000 findfp.c
00001992 l     F .text	0000006a std
00000000 l    df *ABS*	00000000 fwalk.c
00000000 l    df *ABS*	00000000 makebuf.c
00000000 l    df *ABS*	00000000 nano-mallocr.c
00000000 l    df *ABS*	00000000 nano-mallocr.c
00000000 l    df *ABS*	00000000 sbrkr.c
00000000 l    df *ABS*	00000000 stdio.c
00000000 l    df *ABS*	00000000 writer.c
00000000 l    df *ABS*	00000000 closer.c
00000000 l    df *ABS*	00000000 fstatr.c
00000000 l    df *ABS*	00000000 isattyr.c
00000000 l    df *ABS*	00000000 lseekr.c
00000000 l    df *ABS*	00000000 mlock.c
00000000 l    df *ABS*	00000000 readr.c
00000000 l    df *ABS*	00000000 close.c
00000000 l    df *ABS*	00000000 fstat.c
00000000 l    df *ABS*	00000000 isatty.c
00000000 l    df *ABS*	00000000 lseek.c
00000000 l    df *ABS*	00000000 read.c
00000000 l    df *ABS*	00000000 ip.c
00000000 l    df *ABS*	00000000 impure.c
20000b28 l     O .data	00000060 impure_data
00000000 l    df *ABS*	00000000 CH58x_usbdev.c
00000000 l    df *ABS*	00000000 reent.c
000020ec g     O .text	0000001c StrDesc
00001f8c g     F .text	00000028 _isatty_r
0000153a g     F .text	000000da _puts_r
00001fb4 g     F .text	0000002c _lseek_r
2000072e g     F .highcode	0000000e FLASH_ROM_OUT
00000f2c g     F .text	000004a4 USB_DevTransProcess
20001388 g       .data	00000000 __global_pointer$
00001ed0 g     F .text	00000036 __sseek
00001a4c g     F .text	0000006a __sinit
00001622 g     F .text	000000c0 __swbuf_r
20000548 g     F .highcode	0000000e mDelayuS
2000048a  w    F .highcode	000000be HardFault_Handler
00001a06 g     F .text	00000046 __sfmoreglue
20000090  w      .highcode	00000000 GPIOB_IRQHandler
00001fe2 g     F .text	00000002 __malloc_unlock
20000090  w      .highcode	00000000 GPIOA_IRQHandler
20000090  w      .highcode	00000000 SysTick_Handler
20000090  w      .highcode	00000000 NMI_Handler
20000650 g     F .highcode	000000b0 UART1_IRQHandler
20000bb0 g     O .bss	00000004 usb_buf
00001f62 g     F .text	0000002a _fstat_r
20000bc0 g     O .bss	00000004 errno
20000b90 g       .bss	00000000 _sbss
00000200 g       *ABS*	00000000 __stack_size
20000b9c g     O .bss	00000004 RTCTigFlag
20000720 g     F .highcode	0000000e FLASH_ROM_IN
20000ba0 g     O .bss	00000001 DevConfig
00002108 g     O .text	00000014 VER_LIB
20000bac g     O .bss	00000004 uart_flag
200005a0 g     F .highcode	000000b0 UART0_IRQHandler
000020c8 g     O .text	00000012 MyDevDescr
00001484 g     F .text	000000b6 memcpy
000019fc g     F .text	0000000a _cleanup_r
20000ba2 g     O .bss	00000002 SetupReqLen
00001614 g     F .text	0000000e puts
0000201c g     F .text	0000000c _fstat
00000004 g       .init	00000000 _einit
20000090  w      .highcode	00000000 BB_IRQHandler
200007bc g     F .highcode	0000036a FLASH_EEPROM_CMD
20000090  w      .highcode	00000000 Break_Point_Handler
00000d24 g     F .text	000000a6 GPIOB_ModeCfg
20000ba1 g     O .bss	00000001 SetupReqCode
00001e28 g     F .text	0000002a _sbrk_r
0000217c g     O .text	00000004 MyLangDescr
20000090  w      .highcode	00000000 TMR0_IRQHandler
00001fe4 g     F .text	0000002c _read_r
20000700 g     F .highcode	00000012 FLASH_ROM_BEG
20000556 g     F .highcode	00000028 mDelaymS
20000090  w      .highcode	00000000 Ecall_M_Mode_Handler
000020a0 g     O .text	00000027 MyCfgDescr
20007e00 g       .stack	00000000 _heap_end
00002028 g     F .text	0000000c _isatty
0000218c g     O .text	00000004 _global_impure_ptr
2000073c g     F .highcode	00000048 FLASH_ROM_ADDR
00000e4e g     F .text	00000030 _sbrk
000020dc g     O .text	0000000e MyManuInfo
2000057e g     F .highcode	00000016 RTC_IRQHandler
20000bc4 g       .bss	00000000 _ebss
000013d0 g     F .text	00000026 simple_buf_add
00000eae g     F .text	00000032 UART1_DefInit
20000ba4 g     O .bss	00000004 pDescr
20000784 g     F .highcode	00000038 FLASH_ROM_WAIT
00002180 g     O .text	00000002 Return1
0000211c g     O .text	00000020 __sf_fake_stderr
20000090  w      .highcode	00000000 UART2_IRQHandler
20000090  w      .highcode	00000000 PWMX_IRQHandler
20000bb4 g     O .bss	00000004 usb_flag
00001cb6 g     F .text	000000a4 _free_r
00000000 g       .init	00000000 _start
00002184 g     O .text	00000002 Return2
00002034 g     F .text	0000000c _lseek
20000090  w      .highcode	00000000 ADC_IRQHandler
20000b98 g     O .bss	00000004 pEP2_RAM_Addr
20000000 g       .highcode	00000000 _highcode_vma_start
20000090  w      .highcode	00000000 TMR2_IRQHandler
00001f3a g     F .text	00000028 _close_r
20000b90 g     O .bss	00000004 IRQ_STA
20000b28 g       .data	00000000 _data_vma
20000092 g     F .highcode	00000386 SetSysClock
20000594 g     F .highcode	0000000c USB_IRQHandler
00000ee0 g     F .text	0000004c DevEP2_OUT_Deal
000016e2 g     F .text	00000110 __swsetup_r
00001ab6 g     F .text	000000a0 __sfp
00001e52 g     F .text	00000030 __sread
00001fe0 g     F .text	00000002 __malloc_lock
000013f6 g     F .text	00000018 simple_buf_add_u8
0000192e g     F .text	00000064 _fflush_r
20000b94 g     O .bss	00000004 pEP0_RAM_Addr
0000213c g     O .text	00000020 __sf_fake_stdin
00000dca g     F .text	0000001a GPIOPinRemap
20000090  w      .highcode	00000000 I2C_IRQHandler
00000bd6 g     F .text	000000a8 memset
0000140e g     F .text	00000068 main
00001f06 g     F .text	00000006 __sclose
00001d5a g     F .text	000000ce _malloc_r
20000090  w      .highcode	00000000 USB2_IRQHandler
00000004 g       .highcodelalign	00000000 _highcode_lma
20000090  w      .highcode	00000000 LLE_IRQHandler
00000000 g       .init	00000000 _sinit
00001f0c g     F .text	0000002e _write_r
20000b8c g     O .data	00000004 _impure_ptr
000017f2 g     F .text	0000013c __sflush_r
20000090  w      .highcode	00000000 WDOG_BAT_IRQHandler
20000090  w      .highcode	00000000 Ecall_U_Mode_Handler
20000090  w      .highcode	00000000 TMR3_IRQHandler
20008000 g       .stack	00000000 _eusrstack
20000090  w      .highcode	00000000 SW_Handler
00000c7e g     F .text	000000a6 GPIOA_ModeCfg
00001bc2 g     F .text	00000058 __swhatbuf_r
00000de4 g     F .text	00000042 GetSysClock
00000e26 g     F .text	00000028 _write
20000b90 g       .data	00000000 _edata
20000090  w      .highcode	00000000 SPI0_IRQHandler
20000bc4 g       .bss	00000000 _end
20000b28 g       .highcode	00000000 _highcode_vma_end
00002188 g     O .text	00000002 Return3
00002190 g       .dlalign	00000000 _data_lma
00001e82 g     F .text	0000004e __swrite
00001b56 g     F .text	0000006c _fwalk_reent
0000215c g     O .text	00000020 __sf_fake_stdout
00002040 g     F .text	0000000c _read
00000b2c  w      .text	00000000 handle_reset
00001c1a g     F .text	0000009c __smakebuf_r
20000090  w      .highcode	00000000 UART3_IRQHandler
20000bbc g     O .bss	00000004 __malloc_sbrk_start
20000712 g     F .highcode	0000000e FLASH_ROM_END
20000bb8 g     O .bss	00000004 __malloc_free_list
20000090  w      .highcode	00000000 TMR1_IRQHandler
20000418 g     F .highcode	00000072 SYS_ResetExecute
00002010 g     F .text	0000000c _close
00000e7e g     F .text	00000030 UART1_BaudRateCfg



Disassembly of section .init:

00000000 <_sinit>:
_start():
C:/Users/Astap/Desktop/CH583EVT/EVT/EXAM/SRC/Startup/startup_CH583.S:17

	.section	.init,"ax",@progbits
	.global	_start
	.align	1
_start:
	j	handle_reset
   0:	32d0006f          	j	b2c <handle_reset>

Disassembly of section .highcode:

20000000 <_highcode_vma_start>:
	...
_vector_base():
20000008:	0090                	addi	a2,sp,64
2000000a:	2000                	fld	fs0,0(s0)
2000000c:	048a                	slli	s1,s1,0x2
2000000e:	2000                	fld	fs0,0(s0)
20000010:	bda9                	j	1ffffe6a <_data_lma+0x1fffdcda>
20000012:	f5f9                	bnez	a1,1fffffe0 <_data_lma+0x1fffde50>
20000014:	0090                	addi	a2,sp,64
20000016:	2000                	fld	fs0,0(s0)
	...
20000020:	0090                	addi	a2,sp,64
20000022:	2000                	fld	fs0,0(s0)
20000024:	0090                	addi	a2,sp,64
20000026:	2000                	fld	fs0,0(s0)
	...
20000030:	0090                	addi	a2,sp,64
20000032:	2000                	fld	fs0,0(s0)
20000034:	0000                	unimp
20000036:	0000                	unimp
20000038:	0090                	addi	a2,sp,64
2000003a:	2000                	fld	fs0,0(s0)
2000003c:	0000                	unimp
2000003e:	0000                	unimp
20000040:	0090                	addi	a2,sp,64
20000042:	2000                	fld	fs0,0(s0)
20000044:	0090                	addi	a2,sp,64
20000046:	2000                	fld	fs0,0(s0)
20000048:	0090                	addi	a2,sp,64
2000004a:	2000                	fld	fs0,0(s0)
2000004c:	0090                	addi	a2,sp,64
2000004e:	2000                	fld	fs0,0(s0)
20000050:	0090                	addi	a2,sp,64
20000052:	2000                	fld	fs0,0(s0)
20000054:	0090                	addi	a2,sp,64
20000056:	2000                	fld	fs0,0(s0)
20000058:	0594                	addi	a3,sp,704
2000005a:	2000                	fld	fs0,0(s0)
2000005c:	0090                	addi	a2,sp,64
2000005e:	2000                	fld	fs0,0(s0)
20000060:	0090                	addi	a2,sp,64
20000062:	2000                	fld	fs0,0(s0)
20000064:	0090                	addi	a2,sp,64
20000066:	2000                	fld	fs0,0(s0)
20000068:	05a0                	addi	s0,sp,712
2000006a:	2000                	fld	fs0,0(s0)
2000006c:	0650                	addi	a2,sp,772
2000006e:	2000                	fld	fs0,0(s0)
20000070:	057e                	slli	a0,a0,0x1f
20000072:	2000                	fld	fs0,0(s0)
20000074:	0090                	addi	a2,sp,64
20000076:	2000                	fld	fs0,0(s0)
20000078:	0090                	addi	a2,sp,64
2000007a:	2000                	fld	fs0,0(s0)
2000007c:	0090                	addi	a2,sp,64
2000007e:	2000                	fld	fs0,0(s0)
20000080:	0090                	addi	a2,sp,64
20000082:	2000                	fld	fs0,0(s0)
20000084:	0090                	addi	a2,sp,64
20000086:	2000                	fld	fs0,0(s0)
20000088:	0090                	addi	a2,sp,64
2000008a:	2000                	fld	fs0,0(s0)
2000008c:	0090                	addi	a2,sp,64
2000008e:	2000                	fld	fs0,0(s0)

20000090 <ADC_IRQHandler>:
GPIOB_IRQHandler():
C:/Users/Astap/Desktop/CH583EVT/EVT/EXAM/SRC/Startup/startup_CH583.S:121
TMR3_IRQHandler:
UART2_IRQHandler:
UART3_IRQHandler:
WDOG_BAT_IRQHandler: 
1:  
	j 1b
20000090:	a001                	j	20000090 <ADC_IRQHandler>

20000092 <SetSysClock>:
sys_safe_access_enable():
C:\Users\Astap\Desktop\CH583EVT\EVT\EXAM\SRC\StdPeriphDriver\inc/CH58x_sys.h:182
 * within the valid period. The safe mode will be automatically 
 * terminated after the above validity period is exceeded.
 */
 __attribute__((always_inline)) static inline void sys_safe_access_enable(void)
{
   if(read_csr(0x800)&0x08)
20000092:	80002773          	csrr	a4,0x800
20000096:	8b21                	andi	a4,a4,8
20000098:	80818793          	addi	a5,gp,-2040 # 20000b90 <_edata>
2000009c:	cb09                	beqz	a4,200000ae <SetSysClock+0x1c>
C:\Users\Astap\Desktop\CH583EVT\EVT\EXAM\SRC\StdPeriphDriver\inc/CH58x_sys.h:184
   {
       IRQ_STA = read_csr(0x800);
2000009e:	80002773          	csrr	a4,0x800
200000a2:	80e1a423          	sw	a4,-2040(gp) # 20000b90 <_edata>
C:\Users\Astap\Desktop\CH583EVT\EVT\EXAM\SRC\StdPeriphDriver\inc/CH58x_sys.h:185
       write_csr(0x800, (IRQ_STA&(~0x08)));
200000a6:	4398                	lw	a4,0(a5)
200000a8:	9b5d                	andi	a4,a4,-9
200000aa:	80071073          	csrw	0x800,a4
C:\Users\Astap\Desktop\CH583EVT\EVT\EXAM\SRC\StdPeriphDriver\inc/CH58x_sys.h:187
   }
   SAFEOPERATE;
200000ae:	0001                	nop
200000b0:	0001                	nop
C:\Users\Astap\Desktop\CH583EVT\EVT\EXAM\SRC\StdPeriphDriver\inc/CH58x_sys.h:188
   R8_SAFE_ACCESS_SIG = SAFE_ACCESS_SIG1;
200000b2:	40001737          	lui	a4,0x40001
200000b6:	05700693          	li	a3,87
200000ba:	04d70023          	sb	a3,64(a4) # 40001040 <_eusrstack+0x1fff9040>
C:\Users\Astap\Desktop\CH583EVT\EVT\EXAM\SRC\StdPeriphDriver\inc/CH58x_sys.h:189
   R8_SAFE_ACCESS_SIG = SAFE_ACCESS_SIG2;
200000be:	fa800693          	li	a3,-88
200000c2:	04d70023          	sb	a3,64(a4)
C:\Users\Astap\Desktop\CH583EVT\EVT\EXAM\SRC\StdPeriphDriver\inc/CH58x_sys.h:190
   SAFEOPERATE;
200000c6:	0001                	nop
200000c8:	0001                	nop
SetSysClock():
C:/Users/Astap/Desktop/CH583EVT/EVT/EXAM/SRC/StdPeriphDriver/CH58x_sys.c:30
__HIGH_CODE
void SetSysClock(SYS_CLKTypeDef sc)
{
    uint32_t i;
    sys_safe_access_enable();
    R8_PLL_CONFIG &= ~(1 << 5); //
200000ca:	04b74683          	lbu	a3,75(a4)
200000ce:	0df6f693          	andi	a3,a3,223
200000d2:	04d705a3          	sb	a3,75(a4)
sys_safe_access_disable():
C:\Users\Astap\Desktop\CH583EVT\EVT\EXAM\SRC\StdPeriphDriver\inc/CH58x_sys.h:195
}

__attribute__((always_inline)) static inline void sys_safe_access_disable(void)
{
   R8_SAFE_ACCESS_SIG = 0;
200000d6:	04070023          	sb	zero,64(a4)
C:\Users\Astap\Desktop\CH583EVT\EVT\EXAM\SRC\StdPeriphDriver\inc/CH58x_sys.h:196
   write_csr(0x800, read_csr(0x800)|(IRQ_STA&0x08));
200000da:	80002673          	csrr	a2,0x800
200000de:	4394                	lw	a3,0(a5)
200000e0:	8aa1                	andi	a3,a3,8
200000e2:	8ed1                	or	a3,a3,a2
200000e4:	80069073          	csrw	0x800,a3
C:\Users\Astap\Desktop\CH583EVT\EVT\EXAM\SRC\StdPeriphDriver\inc/CH58x_sys.h:197
   IRQ_STA = 0;
200000e8:	8001a423          	sw	zero,-2040(gp) # 20000b90 <_edata>
C:\Users\Astap\Desktop\CH583EVT\EVT\EXAM\SRC\StdPeriphDriver\inc/CH58x_sys.h:198
   SAFEOPERATE;
200000ec:	0001                	nop
200000ee:	0001                	nop
SetSysClock():
C:/Users/Astap/Desktop/CH583EVT/EVT/EXAM/SRC/StdPeriphDriver/CH58x_sys.c:32
    sys_safe_access_disable();
    if(sc & 0x20)
200000f0:	02057693          	andi	a3,a0,32
200000f4:	18068463          	beqz	a3,2000027c <SetSysClock+0x1ea>
C:/Users/Astap/Desktop/CH583EVT/EVT/EXAM/SRC/StdPeriphDriver/CH58x_sys.c:34
    { // HSE div
        if(!(R8_HFCK_PWR_CTRL & RB_CLK_XT32M_PON))
200000f8:	00a74703          	lbu	a4,10(a4)
200000fc:	8b11                	andi	a4,a4,4
200000fe:	e725                	bnez	a4,20000166 <SetSysClock+0xd4>
sys_safe_access_enable():
C:\Users\Astap\Desktop\CH583EVT\EVT\EXAM\SRC\StdPeriphDriver\inc/CH58x_sys.h:182
   if(read_csr(0x800)&0x08)
20000100:	80002773          	csrr	a4,0x800
20000104:	8b21                	andi	a4,a4,8
20000106:	cb09                	beqz	a4,20000118 <SetSysClock+0x86>
C:\Users\Astap\Desktop\CH583EVT\EVT\EXAM\SRC\StdPeriphDriver\inc/CH58x_sys.h:184
       IRQ_STA = read_csr(0x800);
20000108:	80002773          	csrr	a4,0x800
2000010c:	80e1a423          	sw	a4,-2040(gp) # 20000b90 <_edata>
C:\Users\Astap\Desktop\CH583EVT\EVT\EXAM\SRC\StdPeriphDriver\inc/CH58x_sys.h:185
       write_csr(0x800, (IRQ_STA&(~0x08)));
20000110:	4398                	lw	a4,0(a5)
20000112:	9b5d                	andi	a4,a4,-9
20000114:	80071073          	csrw	0x800,a4
C:\Users\Astap\Desktop\CH583EVT\EVT\EXAM\SRC\StdPeriphDriver\inc/CH58x_sys.h:187
   SAFEOPERATE;
20000118:	0001                	nop
2000011a:	0001                	nop
C:\Users\Astap\Desktop\CH583EVT\EVT\EXAM\SRC\StdPeriphDriver\inc/CH58x_sys.h:188
   R8_SAFE_ACCESS_SIG = SAFE_ACCESS_SIG1;
2000011c:	40001737          	lui	a4,0x40001
20000120:	05700693          	li	a3,87
20000124:	04d70023          	sb	a3,64(a4) # 40001040 <_eusrstack+0x1fff9040>
C:\Users\Astap\Desktop\CH583EVT\EVT\EXAM\SRC\StdPeriphDriver\inc/CH58x_sys.h:189
   R8_SAFE_ACCESS_SIG = SAFE_ACCESS_SIG2;
20000128:	fa800693          	li	a3,-88
2000012c:	04d70023          	sb	a3,64(a4)
C:\Users\Astap\Desktop\CH583EVT\EVT\EXAM\SRC\StdPeriphDriver\inc/CH58x_sys.h:190
   SAFEOPERATE;
20000130:	0001                	nop
20000132:	0001                	nop
SetSysClock():
C:/Users/Astap/Desktop/CH583EVT/EVT/EXAM/SRC/StdPeriphDriver/CH58x_sys.c:37
        {
            sys_safe_access_enable();
            R8_HFCK_PWR_CTRL |= RB_CLK_XT32M_PON; // HSE power on
20000134:	00a74683          	lbu	a3,10(a4)
20000138:	0046e693          	ori	a3,a3,4
2000013c:	00d70523          	sb	a3,10(a4)
sys_safe_access_disable():
C:\Users\Astap\Desktop\CH583EVT\EVT\EXAM\SRC\StdPeriphDriver\inc/CH58x_sys.h:195
   R8_SAFE_ACCESS_SIG = 0;
20000140:	04070023          	sb	zero,64(a4)
C:\Users\Astap\Desktop\CH583EVT\EVT\EXAM\SRC\StdPeriphDriver\inc/CH58x_sys.h:196
   write_csr(0x800, read_csr(0x800)|(IRQ_STA&0x08));
20000144:	800026f3          	csrr	a3,0x800
20000148:	4398                	lw	a4,0(a5)
2000014a:	8b21                	andi	a4,a4,8
2000014c:	8f55                	or	a4,a4,a3
2000014e:	80071073          	csrw	0x800,a4
C:\Users\Astap\Desktop\CH583EVT\EVT\EXAM\SRC\StdPeriphDriver\inc/CH58x_sys.h:197
   IRQ_STA = 0;
20000152:	8001a423          	sw	zero,-2040(gp) # 20000b90 <_edata>
C:\Users\Astap\Desktop\CH583EVT\EVT\EXAM\SRC\StdPeriphDriver\inc/CH58x_sys.h:198
   SAFEOPERATE;
20000156:	0001                	nop
20000158:	0001                	nop
2000015a:	4b000713          	li	a4,1200
SetSysClock():
C:/Users/Astap/Desktop/CH583EVT/EVT/EXAM/SRC/StdPeriphDriver/CH58x_sys.c:41 (discriminator 3)
            sys_safe_access_disable();
            for(i = 0; i < 1200; i++)
            {
                __nop();
2000015e:	0001                	nop
C:/Users/Astap/Desktop/CH583EVT/EVT/EXAM/SRC/StdPeriphDriver/CH58x_sys.c:42 (discriminator 3)
                __nop();
20000160:	0001                	nop
20000162:	177d                	addi	a4,a4,-1
C:/Users/Astap/Desktop/CH583EVT/EVT/EXAM/SRC/StdPeriphDriver/CH58x_sys.c:39 (discriminator 3)
            for(i = 0; i < 1200; i++)
20000164:	ff6d                	bnez	a4,2000015e <SetSysClock+0xcc>
sys_safe_access_enable():
C:\Users\Astap\Desktop\CH583EVT\EVT\EXAM\SRC\StdPeriphDriver\inc/CH58x_sys.h:182
   if(read_csr(0x800)&0x08)
20000166:	80002773          	csrr	a4,0x800
2000016a:	8b21                	andi	a4,a4,8
2000016c:	cb09                	beqz	a4,2000017e <SetSysClock+0xec>
C:\Users\Astap\Desktop\CH583EVT\EVT\EXAM\SRC\StdPeriphDriver\inc/CH58x_sys.h:184
       IRQ_STA = read_csr(0x800);
2000016e:	80002773          	csrr	a4,0x800
20000172:	80e1a423          	sw	a4,-2040(gp) # 20000b90 <_edata>
C:\Users\Astap\Desktop\CH583EVT\EVT\EXAM\SRC\StdPeriphDriver\inc/CH58x_sys.h:185
       write_csr(0x800, (IRQ_STA&(~0x08)));
20000176:	4398                	lw	a4,0(a5)
20000178:	9b5d                	andi	a4,a4,-9
2000017a:	80071073          	csrw	0x800,a4
C:\Users\Astap\Desktop\CH583EVT\EVT\EXAM\SRC\StdPeriphDriver\inc/CH58x_sys.h:187
   SAFEOPERATE;
2000017e:	0001                	nop
20000180:	0001                	nop
C:\Users\Astap\Desktop\CH583EVT\EVT\EXAM\SRC\StdPeriphDriver\inc/CH58x_sys.h:188
   R8_SAFE_ACCESS_SIG = SAFE_ACCESS_SIG1;
20000182:	40001737          	lui	a4,0x40001
20000186:	05700693          	li	a3,87
2000018a:	04d70023          	sb	a3,64(a4) # 40001040 <_eusrstack+0x1fff9040>
C:\Users\Astap\Desktop\CH583EVT\EVT\EXAM\SRC\StdPeriphDriver\inc/CH58x_sys.h:189
   R8_SAFE_ACCESS_SIG = SAFE_ACCESS_SIG2;
2000018e:	fa800693          	li	a3,-88
20000192:	04d70023          	sb	a3,64(a4)
C:\Users\Astap\Desktop\CH583EVT\EVT\EXAM\SRC\StdPeriphDriver\inc/CH58x_sys.h:190
   SAFEOPERATE;
20000196:	0001                	nop
20000198:	0001                	nop
SetSysClock():
C:/Users/Astap/Desktop/CH583EVT/EVT/EXAM/SRC/StdPeriphDriver/CH58x_sys.c:47
            }
        }

        sys_safe_access_enable();
        R16_CLK_SYS_CFG = (0 << 6) | (sc & 0x1f);
2000019a:	897d                	andi	a0,a0,31
2000019c:	00a71423          	sh	a0,8(a4)
C:/Users/Astap/Desktop/CH583EVT/EVT/EXAM/SRC/StdPeriphDriver/CH58x_sys.c:48
        __nop();
200001a0:	0001                	nop
C:/Users/Astap/Desktop/CH583EVT/EVT/EXAM/SRC/StdPeriphDriver/CH58x_sys.c:49
        __nop();
200001a2:	0001                	nop
C:/Users/Astap/Desktop/CH583EVT/EVT/EXAM/SRC/StdPeriphDriver/CH58x_sys.c:50
        __nop();
200001a4:	0001                	nop
C:/Users/Astap/Desktop/CH583EVT/EVT/EXAM/SRC/StdPeriphDriver/CH58x_sys.c:51
        __nop();
200001a6:	0001                	nop
sys_safe_access_disable():
C:\Users\Astap\Desktop\CH583EVT\EVT\EXAM\SRC\StdPeriphDriver\inc/CH58x_sys.h:195
   R8_SAFE_ACCESS_SIG = 0;
200001a8:	04070023          	sb	zero,64(a4)
C:\Users\Astap\Desktop\CH583EVT\EVT\EXAM\SRC\StdPeriphDriver\inc/CH58x_sys.h:196
   write_csr(0x800, read_csr(0x800)|(IRQ_STA&0x08));
200001ac:	800026f3          	csrr	a3,0x800
200001b0:	4398                	lw	a4,0(a5)
200001b2:	8b21                	andi	a4,a4,8
200001b4:	8f55                	or	a4,a4,a3
200001b6:	80071073          	csrw	0x800,a4
C:\Users\Astap\Desktop\CH583EVT\EVT\EXAM\SRC\StdPeriphDriver\inc/CH58x_sys.h:197
   IRQ_STA = 0;
200001ba:	8001a423          	sw	zero,-2040(gp) # 20000b90 <_edata>
C:\Users\Astap\Desktop\CH583EVT\EVT\EXAM\SRC\StdPeriphDriver\inc/CH58x_sys.h:198
   SAFEOPERATE;
200001be:	0001                	nop
200001c0:	0001                	nop
sys_safe_access_enable():
C:\Users\Astap\Desktop\CH583EVT\EVT\EXAM\SRC\StdPeriphDriver\inc/CH58x_sys.h:182
   if(read_csr(0x800)&0x08)
200001c2:	80002773          	csrr	a4,0x800
200001c6:	8b21                	andi	a4,a4,8
200001c8:	cb09                	beqz	a4,200001da <SetSysClock+0x148>
C:\Users\Astap\Desktop\CH583EVT\EVT\EXAM\SRC\StdPeriphDriver\inc/CH58x_sys.h:184
       IRQ_STA = read_csr(0x800);
200001ca:	80002773          	csrr	a4,0x800
200001ce:	80e1a423          	sw	a4,-2040(gp) # 20000b90 <_edata>
C:\Users\Astap\Desktop\CH583EVT\EVT\EXAM\SRC\StdPeriphDriver\inc/CH58x_sys.h:185
       write_csr(0x800, (IRQ_STA&(~0x08)));
200001d2:	4398                	lw	a4,0(a5)
200001d4:	9b5d                	andi	a4,a4,-9
200001d6:	80071073          	csrw	0x800,a4
C:\Users\Astap\Desktop\CH583EVT\EVT\EXAM\SRC\StdPeriphDriver\inc/CH58x_sys.h:187
   SAFEOPERATE;
200001da:	0001                	nop
200001dc:	0001                	nop
C:\Users\Astap\Desktop\CH583EVT\EVT\EXAM\SRC\StdPeriphDriver\inc/CH58x_sys.h:188
   R8_SAFE_ACCESS_SIG = SAFE_ACCESS_SIG1;
200001de:	40001737          	lui	a4,0x40001
200001e2:	05700693          	li	a3,87
200001e6:	04d70023          	sb	a3,64(a4) # 40001040 <_eusrstack+0x1fff9040>
C:\Users\Astap\Desktop\CH583EVT\EVT\EXAM\SRC\StdPeriphDriver\inc/CH58x_sys.h:189
   R8_SAFE_ACCESS_SIG = SAFE_ACCESS_SIG2;
200001ea:	fa800693          	li	a3,-88
200001ee:	04d70023          	sb	a3,64(a4)
C:\Users\Astap\Desktop\CH583EVT\EVT\EXAM\SRC\StdPeriphDriver\inc/CH58x_sys.h:190
   SAFEOPERATE;
200001f2:	0001                	nop
200001f4:	0001                	nop
SetSysClock():
C:/Users/Astap/Desktop/CH583EVT/EVT/EXAM/SRC/StdPeriphDriver/CH58x_sys.c:54
        sys_safe_access_disable();
        sys_safe_access_enable();
        SAFEOPERATE;
200001f6:	0001                	nop
200001f8:	0001                	nop
C:/Users/Astap/Desktop/CH583EVT/EVT/EXAM/SRC/StdPeriphDriver/CH58x_sys.c:55
        R8_FLASH_CFG = 0X51;
200001fa:	400026b7          	lui	a3,0x40002
200001fe:	05100613          	li	a2,81
C:/Users/Astap/Desktop/CH583EVT/EVT/EXAM/SRC/StdPeriphDriver/CH58x_sys.c:88
            sys_safe_access_disable();
        }
        else
        {
            sys_safe_access_enable();
            R8_FLASH_CFG = 0X52;
20000202:	80c683a3          	sb	a2,-2041(a3) # 40001807 <_eusrstack+0x1fff9807>
sys_safe_access_disable():
C:\Users\Astap\Desktop\CH583EVT\EVT\EXAM\SRC\StdPeriphDriver\inc/CH58x_sys.h:195
   R8_SAFE_ACCESS_SIG = 0;
20000206:	04070023          	sb	zero,64(a4)
C:\Users\Astap\Desktop\CH583EVT\EVT\EXAM\SRC\StdPeriphDriver\inc/CH58x_sys.h:196
   write_csr(0x800, read_csr(0x800)|(IRQ_STA&0x08));
2000020a:	800026f3          	csrr	a3,0x800
2000020e:	4398                	lw	a4,0(a5)
20000210:	8b21                	andi	a4,a4,8
20000212:	8f55                	or	a4,a4,a3
20000214:	80071073          	csrw	0x800,a4
C:\Users\Astap\Desktop\CH583EVT\EVT\EXAM\SRC\StdPeriphDriver\inc/CH58x_sys.h:197
   IRQ_STA = 0;
20000218:	8001a423          	sw	zero,-2040(gp) # 20000b90 <_edata>
C:\Users\Astap\Desktop\CH583EVT\EVT\EXAM\SRC\StdPeriphDriver\inc/CH58x_sys.h:198
   SAFEOPERATE;
2000021c:	0001                	nop
2000021e:	0001                	nop
sys_safe_access_enable():
C:\Users\Astap\Desktop\CH583EVT\EVT\EXAM\SRC\StdPeriphDriver\inc/CH58x_sys.h:182
   if(read_csr(0x800)&0x08)
20000220:	80002773          	csrr	a4,0x800
20000224:	8b21                	andi	a4,a4,8
20000226:	cb09                	beqz	a4,20000238 <SetSysClock+0x1a6>
C:\Users\Astap\Desktop\CH583EVT\EVT\EXAM\SRC\StdPeriphDriver\inc/CH58x_sys.h:184
       IRQ_STA = read_csr(0x800);
20000228:	80002773          	csrr	a4,0x800
2000022c:	80e1a423          	sw	a4,-2040(gp) # 20000b90 <_edata>
C:\Users\Astap\Desktop\CH583EVT\EVT\EXAM\SRC\StdPeriphDriver\inc/CH58x_sys.h:185
       write_csr(0x800, (IRQ_STA&(~0x08)));
20000230:	4398                	lw	a4,0(a5)
20000232:	9b5d                	andi	a4,a4,-9
20000234:	80071073          	csrw	0x800,a4
C:\Users\Astap\Desktop\CH583EVT\EVT\EXAM\SRC\StdPeriphDriver\inc/CH58x_sys.h:187
   SAFEOPERATE;
20000238:	0001                	nop
2000023a:	0001                	nop
C:\Users\Astap\Desktop\CH583EVT\EVT\EXAM\SRC\StdPeriphDriver\inc/CH58x_sys.h:188
   R8_SAFE_ACCESS_SIG = SAFE_ACCESS_SIG1;
2000023c:	40001737          	lui	a4,0x40001
20000240:	05700693          	li	a3,87
20000244:	04d70023          	sb	a3,64(a4) # 40001040 <_eusrstack+0x1fff9040>
C:\Users\Astap\Desktop\CH583EVT\EVT\EXAM\SRC\StdPeriphDriver\inc/CH58x_sys.h:189
   R8_SAFE_ACCESS_SIG = SAFE_ACCESS_SIG2;
20000248:	fa800693          	li	a3,-88
2000024c:	04d70023          	sb	a3,64(a4)
C:\Users\Astap\Desktop\CH583EVT\EVT\EXAM\SRC\StdPeriphDriver\inc/CH58x_sys.h:190
   SAFEOPERATE;
20000250:	0001                	nop
20000252:	0001                	nop
SetSysClock():
C:/Users/Astap/Desktop/CH583EVT/EVT/EXAM/SRC/StdPeriphDriver/CH58x_sys.c:100
        R16_CLK_SYS_CFG |= RB_CLK_SYS_MOD;
        sys_safe_access_disable();
    }
    //更改FLASH clk的驱动能力
    sys_safe_access_enable();
    R8_PLL_CONFIG |= 1 << 7;
20000254:	04b74683          	lbu	a3,75(a4)
20000258:	0806e693          	ori	a3,a3,128
2000025c:	04d705a3          	sb	a3,75(a4)
sys_safe_access_disable():
C:\Users\Astap\Desktop\CH583EVT\EVT\EXAM\SRC\StdPeriphDriver\inc/CH58x_sys.h:195
   R8_SAFE_ACCESS_SIG = 0;
20000260:	04070023          	sb	zero,64(a4)
C:\Users\Astap\Desktop\CH583EVT\EVT\EXAM\SRC\StdPeriphDriver\inc/CH58x_sys.h:196
   write_csr(0x800, read_csr(0x800)|(IRQ_STA&0x08));
20000264:	80002773          	csrr	a4,0x800
20000268:	439c                	lw	a5,0(a5)
2000026a:	8ba1                	andi	a5,a5,8
2000026c:	8fd9                	or	a5,a5,a4
2000026e:	80079073          	csrw	0x800,a5
C:\Users\Astap\Desktop\CH583EVT\EVT\EXAM\SRC\StdPeriphDriver\inc/CH58x_sys.h:197
   IRQ_STA = 0;
20000272:	8001a423          	sw	zero,-2040(gp) # 20000b90 <_edata>
C:\Users\Astap\Desktop\CH583EVT\EVT\EXAM\SRC\StdPeriphDriver\inc/CH58x_sys.h:198
   SAFEOPERATE;
20000276:	0001                	nop
20000278:	0001                	nop
SetSysClock():
C:/Users/Astap/Desktop/CH583EVT/EVT/EXAM/SRC/StdPeriphDriver/CH58x_sys.c:102
    sys_safe_access_disable();
}
2000027a:	8082                	ret
C:/Users/Astap/Desktop/CH583EVT/EVT/EXAM/SRC/StdPeriphDriver/CH58x_sys.c:59
    else if(sc & 0x40)
2000027c:	04057693          	andi	a3,a0,64
20000280:	14068b63          	beqz	a3,200003d6 <SetSysClock+0x344>
C:/Users/Astap/Desktop/CH583EVT/EVT/EXAM/SRC/StdPeriphDriver/CH58x_sys.c:61
        if(!(R8_HFCK_PWR_CTRL & RB_CLK_PLL_PON))
20000284:	00a74703          	lbu	a4,10(a4)
20000288:	8b41                	andi	a4,a4,16
2000028a:	e725                	bnez	a4,200002f2 <SetSysClock+0x260>
sys_safe_access_enable():
C:\Users\Astap\Desktop\CH583EVT\EVT\EXAM\SRC\StdPeriphDriver\inc/CH58x_sys.h:182
   if(read_csr(0x800)&0x08)
2000028c:	80002773          	csrr	a4,0x800
20000290:	8b21                	andi	a4,a4,8
20000292:	cb09                	beqz	a4,200002a4 <SetSysClock+0x212>
C:\Users\Astap\Desktop\CH583EVT\EVT\EXAM\SRC\StdPeriphDriver\inc/CH58x_sys.h:184
       IRQ_STA = read_csr(0x800);
20000294:	80002773          	csrr	a4,0x800
20000298:	80e1a423          	sw	a4,-2040(gp) # 20000b90 <_edata>
C:\Users\Astap\Desktop\CH583EVT\EVT\EXAM\SRC\StdPeriphDriver\inc/CH58x_sys.h:185
       write_csr(0x800, (IRQ_STA&(~0x08)));
2000029c:	4398                	lw	a4,0(a5)
2000029e:	9b5d                	andi	a4,a4,-9
200002a0:	80071073          	csrw	0x800,a4
C:\Users\Astap\Desktop\CH583EVT\EVT\EXAM\SRC\StdPeriphDriver\inc/CH58x_sys.h:187
   SAFEOPERATE;
200002a4:	0001                	nop
200002a6:	0001                	nop
C:\Users\Astap\Desktop\CH583EVT\EVT\EXAM\SRC\StdPeriphDriver\inc/CH58x_sys.h:188
   R8_SAFE_ACCESS_SIG = SAFE_ACCESS_SIG1;
200002a8:	40001737          	lui	a4,0x40001
200002ac:	05700693          	li	a3,87
200002b0:	04d70023          	sb	a3,64(a4) # 40001040 <_eusrstack+0x1fff9040>
C:\Users\Astap\Desktop\CH583EVT\EVT\EXAM\SRC\StdPeriphDriver\inc/CH58x_sys.h:189
   R8_SAFE_ACCESS_SIG = SAFE_ACCESS_SIG2;
200002b4:	fa800693          	li	a3,-88
200002b8:	04d70023          	sb	a3,64(a4)
C:\Users\Astap\Desktop\CH583EVT\EVT\EXAM\SRC\StdPeriphDriver\inc/CH58x_sys.h:190
   SAFEOPERATE;
200002bc:	0001                	nop
200002be:	0001                	nop
SetSysClock():
C:/Users/Astap/Desktop/CH583EVT/EVT/EXAM/SRC/StdPeriphDriver/CH58x_sys.c:64
            R8_HFCK_PWR_CTRL |= RB_CLK_PLL_PON; // PLL power on
200002c0:	00a74683          	lbu	a3,10(a4)
200002c4:	0106e693          	ori	a3,a3,16
200002c8:	00d70523          	sb	a3,10(a4)
sys_safe_access_disable():
C:\Users\Astap\Desktop\CH583EVT\EVT\EXAM\SRC\StdPeriphDriver\inc/CH58x_sys.h:195
   R8_SAFE_ACCESS_SIG = 0;
200002cc:	04070023          	sb	zero,64(a4)
C:\Users\Astap\Desktop\CH583EVT\EVT\EXAM\SRC\StdPeriphDriver\inc/CH58x_sys.h:196
   write_csr(0x800, read_csr(0x800)|(IRQ_STA&0x08));
200002d0:	800026f3          	csrr	a3,0x800
200002d4:	4398                	lw	a4,0(a5)
200002d6:	8b21                	andi	a4,a4,8
200002d8:	8f55                	or	a4,a4,a3
200002da:	80071073          	csrw	0x800,a4
C:\Users\Astap\Desktop\CH583EVT\EVT\EXAM\SRC\StdPeriphDriver\inc/CH58x_sys.h:197
   IRQ_STA = 0;
200002de:	8001a423          	sw	zero,-2040(gp) # 20000b90 <_edata>
C:\Users\Astap\Desktop\CH583EVT\EVT\EXAM\SRC\StdPeriphDriver\inc/CH58x_sys.h:198
   SAFEOPERATE;
200002e2:	0001                	nop
200002e4:	0001                	nop
200002e6:	7d000713          	li	a4,2000
SetSysClock():
C:/Users/Astap/Desktop/CH583EVT/EVT/EXAM/SRC/StdPeriphDriver/CH58x_sys.c:68 (discriminator 3)
                __nop();
200002ea:	0001                	nop
C:/Users/Astap/Desktop/CH583EVT/EVT/EXAM/SRC/StdPeriphDriver/CH58x_sys.c:69 (discriminator 3)
                __nop();
200002ec:	0001                	nop
200002ee:	177d                	addi	a4,a4,-1
C:/Users/Astap/Desktop/CH583EVT/EVT/EXAM/SRC/StdPeriphDriver/CH58x_sys.c:66 (discriminator 3)
            for(i = 0; i < 2000; i++)
200002f0:	ff6d                	bnez	a4,200002ea <SetSysClock+0x258>
sys_safe_access_enable():
C:\Users\Astap\Desktop\CH583EVT\EVT\EXAM\SRC\StdPeriphDriver\inc/CH58x_sys.h:182
   if(read_csr(0x800)&0x08)
200002f2:	80002773          	csrr	a4,0x800
200002f6:	8b21                	andi	a4,a4,8
200002f8:	cb09                	beqz	a4,2000030a <SetSysClock+0x278>
C:\Users\Astap\Desktop\CH583EVT\EVT\EXAM\SRC\StdPeriphDriver\inc/CH58x_sys.h:184
       IRQ_STA = read_csr(0x800);
200002fa:	80002773          	csrr	a4,0x800
200002fe:	80e1a423          	sw	a4,-2040(gp) # 20000b90 <_edata>
C:\Users\Astap\Desktop\CH583EVT\EVT\EXAM\SRC\StdPeriphDriver\inc/CH58x_sys.h:185
       write_csr(0x800, (IRQ_STA&(~0x08)));
20000302:	4398                	lw	a4,0(a5)
20000304:	9b5d                	andi	a4,a4,-9
20000306:	80071073          	csrw	0x800,a4
C:\Users\Astap\Desktop\CH583EVT\EVT\EXAM\SRC\StdPeriphDriver\inc/CH58x_sys.h:187
   SAFEOPERATE;
2000030a:	0001                	nop
2000030c:	0001                	nop
C:\Users\Astap\Desktop\CH583EVT\EVT\EXAM\SRC\StdPeriphDriver\inc/CH58x_sys.h:188
   R8_SAFE_ACCESS_SIG = SAFE_ACCESS_SIG1;
2000030e:	40001737          	lui	a4,0x40001
20000312:	05700693          	li	a3,87
20000316:	04d70023          	sb	a3,64(a4) # 40001040 <_eusrstack+0x1fff9040>
C:\Users\Astap\Desktop\CH583EVT\EVT\EXAM\SRC\StdPeriphDriver\inc/CH58x_sys.h:189
   R8_SAFE_ACCESS_SIG = SAFE_ACCESS_SIG2;
2000031a:	fa800693          	li	a3,-88
2000031e:	04d70023          	sb	a3,64(a4)
C:\Users\Astap\Desktop\CH583EVT\EVT\EXAM\SRC\StdPeriphDriver\inc/CH58x_sys.h:190
   SAFEOPERATE;
20000322:	0001                	nop
20000324:	0001                	nop
SetSysClock():
C:/Users/Astap/Desktop/CH583EVT/EVT/EXAM/SRC/StdPeriphDriver/CH58x_sys.c:73
        R16_CLK_SYS_CFG = (1 << 6) | (sc & 0x1f);
20000326:	01f57693          	andi	a3,a0,31
2000032a:	0406e693          	ori	a3,a3,64
2000032e:	00d71423          	sh	a3,8(a4)
C:/Users/Astap/Desktop/CH583EVT/EVT/EXAM/SRC/StdPeriphDriver/CH58x_sys.c:74
        __nop();
20000332:	0001                	nop
C:/Users/Astap/Desktop/CH583EVT/EVT/EXAM/SRC/StdPeriphDriver/CH58x_sys.c:75
        __nop();
20000334:	0001                	nop
C:/Users/Astap/Desktop/CH583EVT/EVT/EXAM/SRC/StdPeriphDriver/CH58x_sys.c:76
        __nop();
20000336:	0001                	nop
C:/Users/Astap/Desktop/CH583EVT/EVT/EXAM/SRC/StdPeriphDriver/CH58x_sys.c:77
        __nop();
20000338:	0001                	nop
sys_safe_access_disable():
C:\Users\Astap\Desktop\CH583EVT\EVT\EXAM\SRC\StdPeriphDriver\inc/CH58x_sys.h:195
   R8_SAFE_ACCESS_SIG = 0;
2000033a:	04070023          	sb	zero,64(a4)
C:\Users\Astap\Desktop\CH583EVT\EVT\EXAM\SRC\StdPeriphDriver\inc/CH58x_sys.h:196
   write_csr(0x800, read_csr(0x800)|(IRQ_STA&0x08));
2000033e:	800026f3          	csrr	a3,0x800
20000342:	4398                	lw	a4,0(a5)
20000344:	8b21                	andi	a4,a4,8
20000346:	8f55                	or	a4,a4,a3
20000348:	80071073          	csrw	0x800,a4
C:\Users\Astap\Desktop\CH583EVT\EVT\EXAM\SRC\StdPeriphDriver\inc/CH58x_sys.h:197
   IRQ_STA = 0;
2000034c:	8001a423          	sw	zero,-2040(gp) # 20000b90 <_edata>
C:\Users\Astap\Desktop\CH583EVT\EVT\EXAM\SRC\StdPeriphDriver\inc/CH58x_sys.h:198
   SAFEOPERATE;
20000350:	0001                	nop
20000352:	0001                	nop
SetSysClock():
C:/Users/Astap/Desktop/CH583EVT/EVT/EXAM/SRC/StdPeriphDriver/CH58x_sys.c:79
        if(sc == CLK_SOURCE_PLL_80MHz)
20000354:	04600713          	li	a4,70
20000358:	04e51063          	bne	a0,a4,20000398 <SetSysClock+0x306>
sys_safe_access_enable():
C:\Users\Astap\Desktop\CH583EVT\EVT\EXAM\SRC\StdPeriphDriver\inc/CH58x_sys.h:182
   if(read_csr(0x800)&0x08)
2000035c:	80002773          	csrr	a4,0x800
20000360:	8b21                	andi	a4,a4,8
20000362:	cb09                	beqz	a4,20000374 <SetSysClock+0x2e2>
C:\Users\Astap\Desktop\CH583EVT\EVT\EXAM\SRC\StdPeriphDriver\inc/CH58x_sys.h:184
       IRQ_STA = read_csr(0x800);
20000364:	80002773          	csrr	a4,0x800
20000368:	80e1a423          	sw	a4,-2040(gp) # 20000b90 <_edata>
C:\Users\Astap\Desktop\CH583EVT\EVT\EXAM\SRC\StdPeriphDriver\inc/CH58x_sys.h:185
       write_csr(0x800, (IRQ_STA&(~0x08)));
2000036c:	4398                	lw	a4,0(a5)
2000036e:	9b5d                	andi	a4,a4,-9
20000370:	80071073          	csrw	0x800,a4
C:\Users\Astap\Desktop\CH583EVT\EVT\EXAM\SRC\StdPeriphDriver\inc/CH58x_sys.h:187
   SAFEOPERATE;
20000374:	0001                	nop
20000376:	0001                	nop
C:\Users\Astap\Desktop\CH583EVT\EVT\EXAM\SRC\StdPeriphDriver\inc/CH58x_sys.h:188
   R8_SAFE_ACCESS_SIG = SAFE_ACCESS_SIG1;
20000378:	40001737          	lui	a4,0x40001
2000037c:	05700693          	li	a3,87
20000380:	04d70023          	sb	a3,64(a4) # 40001040 <_eusrstack+0x1fff9040>
C:\Users\Astap\Desktop\CH583EVT\EVT\EXAM\SRC\StdPeriphDriver\inc/CH58x_sys.h:189
   R8_SAFE_ACCESS_SIG = SAFE_ACCESS_SIG2;
20000384:	fa800693          	li	a3,-88
20000388:	04d70023          	sb	a3,64(a4)
C:\Users\Astap\Desktop\CH583EVT\EVT\EXAM\SRC\StdPeriphDriver\inc/CH58x_sys.h:190
   SAFEOPERATE;
2000038c:	0001                	nop
2000038e:	0001                	nop
SetSysClock():
C:/Users/Astap/Desktop/CH583EVT/EVT/EXAM/SRC/StdPeriphDriver/CH58x_sys.c:82
            R8_FLASH_CFG = 0X02;
20000390:	400026b7          	lui	a3,0x40002
20000394:	4609                	li	a2,2
20000396:	b5b5                	j	20000202 <SetSysClock+0x170>
sys_safe_access_enable():
C:\Users\Astap\Desktop\CH583EVT\EVT\EXAM\SRC\StdPeriphDriver\inc/CH58x_sys.h:182
   if(read_csr(0x800)&0x08)
20000398:	80002773          	csrr	a4,0x800
2000039c:	8b21                	andi	a4,a4,8
2000039e:	cb09                	beqz	a4,200003b0 <SetSysClock+0x31e>
C:\Users\Astap\Desktop\CH583EVT\EVT\EXAM\SRC\StdPeriphDriver\inc/CH58x_sys.h:184
       IRQ_STA = read_csr(0x800);
200003a0:	80002773          	csrr	a4,0x800
200003a4:	80e1a423          	sw	a4,-2040(gp) # 20000b90 <_edata>
C:\Users\Astap\Desktop\CH583EVT\EVT\EXAM\SRC\StdPeriphDriver\inc/CH58x_sys.h:185
       write_csr(0x800, (IRQ_STA&(~0x08)));
200003a8:	4398                	lw	a4,0(a5)
200003aa:	9b5d                	andi	a4,a4,-9
200003ac:	80071073          	csrw	0x800,a4
C:\Users\Astap\Desktop\CH583EVT\EVT\EXAM\SRC\StdPeriphDriver\inc/CH58x_sys.h:187
   SAFEOPERATE;
200003b0:	0001                	nop
200003b2:	0001                	nop
C:\Users\Astap\Desktop\CH583EVT\EVT\EXAM\SRC\StdPeriphDriver\inc/CH58x_sys.h:188
   R8_SAFE_ACCESS_SIG = SAFE_ACCESS_SIG1;
200003b4:	40001737          	lui	a4,0x40001
200003b8:	05700693          	li	a3,87
200003bc:	04d70023          	sb	a3,64(a4) # 40001040 <_eusrstack+0x1fff9040>
C:\Users\Astap\Desktop\CH583EVT\EVT\EXAM\SRC\StdPeriphDriver\inc/CH58x_sys.h:189
   R8_SAFE_ACCESS_SIG = SAFE_ACCESS_SIG2;
200003c0:	fa800693          	li	a3,-88
200003c4:	04d70023          	sb	a3,64(a4)
C:\Users\Astap\Desktop\CH583EVT\EVT\EXAM\SRC\StdPeriphDriver\inc/CH58x_sys.h:190
   SAFEOPERATE;
200003c8:	0001                	nop
200003ca:	0001                	nop
SetSysClock():
C:/Users/Astap/Desktop/CH583EVT/EVT/EXAM/SRC/StdPeriphDriver/CH58x_sys.c:88
            R8_FLASH_CFG = 0X52;
200003cc:	400026b7          	lui	a3,0x40002
200003d0:	05200613          	li	a2,82
200003d4:	b53d                	j	20000202 <SetSysClock+0x170>
sys_safe_access_enable():
C:\Users\Astap\Desktop\CH583EVT\EVT\EXAM\SRC\StdPeriphDriver\inc/CH58x_sys.h:182
   if(read_csr(0x800)&0x08)
200003d6:	80002773          	csrr	a4,0x800
200003da:	8b21                	andi	a4,a4,8
200003dc:	cb09                	beqz	a4,200003ee <SetSysClock+0x35c>
C:\Users\Astap\Desktop\CH583EVT\EVT\EXAM\SRC\StdPeriphDriver\inc/CH58x_sys.h:184
       IRQ_STA = read_csr(0x800);
200003de:	80002773          	csrr	a4,0x800
200003e2:	80e1a423          	sw	a4,-2040(gp) # 20000b90 <_edata>
C:\Users\Astap\Desktop\CH583EVT\EVT\EXAM\SRC\StdPeriphDriver\inc/CH58x_sys.h:185
       write_csr(0x800, (IRQ_STA&(~0x08)));
200003e6:	4398                	lw	a4,0(a5)
200003e8:	9b5d                	andi	a4,a4,-9
200003ea:	80071073          	csrw	0x800,a4
C:\Users\Astap\Desktop\CH583EVT\EVT\EXAM\SRC\StdPeriphDriver\inc/CH58x_sys.h:187
   SAFEOPERATE;
200003ee:	0001                	nop
200003f0:	0001                	nop
C:\Users\Astap\Desktop\CH583EVT\EVT\EXAM\SRC\StdPeriphDriver\inc/CH58x_sys.h:188
   R8_SAFE_ACCESS_SIG = SAFE_ACCESS_SIG1;
200003f2:	40001737          	lui	a4,0x40001
200003f6:	05700693          	li	a3,87
200003fa:	04d70023          	sb	a3,64(a4) # 40001040 <_eusrstack+0x1fff9040>
C:\Users\Astap\Desktop\CH583EVT\EVT\EXAM\SRC\StdPeriphDriver\inc/CH58x_sys.h:189
   R8_SAFE_ACCESS_SIG = SAFE_ACCESS_SIG2;
200003fe:	fa800693          	li	a3,-88
20000402:	04d70023          	sb	a3,64(a4)
C:\Users\Astap\Desktop\CH583EVT\EVT\EXAM\SRC\StdPeriphDriver\inc/CH58x_sys.h:190
   SAFEOPERATE;
20000406:	0001                	nop
20000408:	0001                	nop
SetSysClock():
C:/Users/Astap/Desktop/CH583EVT/EVT/EXAM/SRC/StdPeriphDriver/CH58x_sys.c:95
        R16_CLK_SYS_CFG |= RB_CLK_SYS_MOD;
2000040a:	00875683          	lhu	a3,8(a4)
2000040e:	0c06e693          	ori	a3,a3,192
20000412:	00d71423          	sh	a3,8(a4)
20000416:	bbc5                	j	20000206 <SetSysClock+0x174>

20000418 <SYS_ResetExecute>:
SYS_ResetExecute():
C:/Users/Astap/Desktop/CH583EVT/EVT/EXAM/SRC/StdPeriphDriver/CH58x_sys.c:164
 *
 * @return  none
 */
__HIGH_CODE
void SYS_ResetExecute(void)
{
20000418:	1141                	addi	sp,sp,-16
C:/Users/Astap/Desktop/CH583EVT/EVT/EXAM/SRC/StdPeriphDriver/CH58x_sys.c:165
    FLASH_ROM_SW_RESET();
2000041a:	4681                	li	a3,0
2000041c:	4601                	li	a2,0
2000041e:	4581                	li	a1,0
20000420:	4511                	li	a0,4
C:/Users/Astap/Desktop/CH583EVT/EVT/EXAM/SRC/StdPeriphDriver/CH58x_sys.c:164
{
20000422:	c606                	sw	ra,12(sp)
C:/Users/Astap/Desktop/CH583EVT/EVT/EXAM/SRC/StdPeriphDriver/CH58x_sys.c:165
    FLASH_ROM_SW_RESET();
20000424:	2e61                	jal	200007bc <FLASH_EEPROM_CMD>
sys_safe_access_enable():
C:\Users\Astap\Desktop\CH583EVT\EVT\EXAM\SRC\StdPeriphDriver\inc/CH58x_sys.h:182
   if(read_csr(0x800)&0x08)
20000426:	800027f3          	csrr	a5,0x800
2000042a:	8ba1                	andi	a5,a5,8
2000042c:	80818693          	addi	a3,gp,-2040 # 20000b90 <_edata>
20000430:	cb89                	beqz	a5,20000442 <SYS_ResetExecute+0x2a>
C:\Users\Astap\Desktop\CH583EVT\EVT\EXAM\SRC\StdPeriphDriver\inc/CH58x_sys.h:184
       IRQ_STA = read_csr(0x800);
20000432:	800027f3          	csrr	a5,0x800
20000436:	80f1a423          	sw	a5,-2040(gp) # 20000b90 <_edata>
C:\Users\Astap\Desktop\CH583EVT\EVT\EXAM\SRC\StdPeriphDriver\inc/CH58x_sys.h:185
       write_csr(0x800, (IRQ_STA&(~0x08)));
2000043a:	429c                	lw	a5,0(a3)
2000043c:	9bdd                	andi	a5,a5,-9
2000043e:	80079073          	csrw	0x800,a5
C:\Users\Astap\Desktop\CH583EVT\EVT\EXAM\SRC\StdPeriphDriver\inc/CH58x_sys.h:187
   SAFEOPERATE;
20000442:	0001                	nop
20000444:	0001                	nop
C:\Users\Astap\Desktop\CH583EVT\EVT\EXAM\SRC\StdPeriphDriver\inc/CH58x_sys.h:188
   R8_SAFE_ACCESS_SIG = SAFE_ACCESS_SIG1;
20000446:	400017b7          	lui	a5,0x40001
2000044a:	05700713          	li	a4,87
2000044e:	04e78023          	sb	a4,64(a5) # 40001040 <_eusrstack+0x1fff9040>
C:\Users\Astap\Desktop\CH583EVT\EVT\EXAM\SRC\StdPeriphDriver\inc/CH58x_sys.h:189
   R8_SAFE_ACCESS_SIG = SAFE_ACCESS_SIG2;
20000452:	fa800713          	li	a4,-88
20000456:	04e78023          	sb	a4,64(a5)
C:\Users\Astap\Desktop\CH583EVT\EVT\EXAM\SRC\StdPeriphDriver\inc/CH58x_sys.h:190
   SAFEOPERATE;
2000045a:	0001                	nop
2000045c:	0001                	nop
SYS_ResetExecute():
C:/Users/Astap/Desktop/CH583EVT/EVT/EXAM/SRC/StdPeriphDriver/CH58x_sys.c:167
    sys_safe_access_enable();
    R8_RST_WDOG_CTRL |= RB_SOFTWARE_RESET;
2000045e:	0467c703          	lbu	a4,70(a5)
20000462:	00176713          	ori	a4,a4,1
20000466:	04e78323          	sb	a4,70(a5)
sys_safe_access_disable():
C:\Users\Astap\Desktop\CH583EVT\EVT\EXAM\SRC\StdPeriphDriver\inc/CH58x_sys.h:195
   R8_SAFE_ACCESS_SIG = 0;
2000046a:	04078023          	sb	zero,64(a5)
C:\Users\Astap\Desktop\CH583EVT\EVT\EXAM\SRC\StdPeriphDriver\inc/CH58x_sys.h:196
   write_csr(0x800, read_csr(0x800)|(IRQ_STA&0x08));
2000046e:	80002773          	csrr	a4,0x800
20000472:	429c                	lw	a5,0(a3)
20000474:	8ba1                	andi	a5,a5,8
20000476:	8fd9                	or	a5,a5,a4
20000478:	80079073          	csrw	0x800,a5
C:\Users\Astap\Desktop\CH583EVT\EVT\EXAM\SRC\StdPeriphDriver\inc/CH58x_sys.h:197
   IRQ_STA = 0;
2000047c:	8001a423          	sw	zero,-2040(gp) # 20000b90 <_edata>
C:\Users\Astap\Desktop\CH583EVT\EVT\EXAM\SRC\StdPeriphDriver\inc/CH58x_sys.h:198
   SAFEOPERATE;
20000480:	0001                	nop
20000482:	0001                	nop
SYS_ResetExecute():
C:/Users/Astap/Desktop/CH583EVT/EVT/EXAM/SRC/StdPeriphDriver/CH58x_sys.c:169
    sys_safe_access_disable();
}
20000484:	40b2                	lw	ra,12(sp)
20000486:	0141                	addi	sp,sp,16
20000488:	8082                	ret

2000048a <HardFault_Handler>:
HardFault_Handler():
C:/Users/Astap/Desktop/CH583EVT/EVT/EXAM/SRC/StdPeriphDriver/CH58x_sys.c:303
__INTERRUPT
__HIGH_CODE
__attribute__((weak))
void HardFault_Handler(void)
{
    FLASH_ROM_SW_RESET();
2000048a:	4681                	li	a3,0
2000048c:	4601                	li	a2,0
2000048e:	4581                	li	a1,0
20000490:	4511                	li	a0,4
20000492:	262d                	jal	200007bc <FLASH_EEPROM_CMD>
sys_safe_access_enable():
C:\Users\Astap\Desktop\CH583EVT\EVT\EXAM\SRC\StdPeriphDriver\inc/CH58x_sys.h:182
   if(read_csr(0x800)&0x08)
20000494:	800027f3          	csrr	a5,0x800
20000498:	8ba1                	andi	a5,a5,8
2000049a:	80818713          	addi	a4,gp,-2040 # 20000b90 <_edata>
2000049e:	cb89                	beqz	a5,200004b0 <HardFault_Handler+0x26>
C:\Users\Astap\Desktop\CH583EVT\EVT\EXAM\SRC\StdPeriphDriver\inc/CH58x_sys.h:184
       IRQ_STA = read_csr(0x800);
200004a0:	800027f3          	csrr	a5,0x800
200004a4:	80f1a423          	sw	a5,-2040(gp) # 20000b90 <_edata>
C:\Users\Astap\Desktop\CH583EVT\EVT\EXAM\SRC\StdPeriphDriver\inc/CH58x_sys.h:185
       write_csr(0x800, (IRQ_STA&(~0x08)));
200004a8:	431c                	lw	a5,0(a4)
200004aa:	9bdd                	andi	a5,a5,-9
200004ac:	80079073          	csrw	0x800,a5
C:\Users\Astap\Desktop\CH583EVT\EVT\EXAM\SRC\StdPeriphDriver\inc/CH58x_sys.h:187
   SAFEOPERATE;
200004b0:	0001                	nop
200004b2:	0001                	nop
C:\Users\Astap\Desktop\CH583EVT\EVT\EXAM\SRC\StdPeriphDriver\inc/CH58x_sys.h:188
   R8_SAFE_ACCESS_SIG = SAFE_ACCESS_SIG1;
200004b4:	400017b7          	lui	a5,0x40001
200004b8:	05700693          	li	a3,87
200004bc:	04d78023          	sb	a3,64(a5) # 40001040 <_eusrstack+0x1fff9040>
C:\Users\Astap\Desktop\CH583EVT\EVT\EXAM\SRC\StdPeriphDriver\inc/CH58x_sys.h:189
   R8_SAFE_ACCESS_SIG = SAFE_ACCESS_SIG2;
200004c0:	fa800693          	li	a3,-88
200004c4:	04d78023          	sb	a3,64(a5)
C:\Users\Astap\Desktop\CH583EVT\EVT\EXAM\SRC\StdPeriphDriver\inc/CH58x_sys.h:190
   SAFEOPERATE;
200004c8:	0001                	nop
200004ca:	0001                	nop
HardFault_Handler():
C:/Users/Astap/Desktop/CH583EVT/EVT/EXAM/SRC/StdPeriphDriver/CH58x_sys.c:305
    sys_safe_access_enable();
    R16_INT32K_TUNE = 0xFFFF;
200004cc:	56fd                	li	a3,-1
200004ce:	02d79623          	sh	a3,44(a5)
sys_safe_access_disable():
C:\Users\Astap\Desktop\CH583EVT\EVT\EXAM\SRC\StdPeriphDriver\inc/CH58x_sys.h:195
   R8_SAFE_ACCESS_SIG = 0;
200004d2:	04078023          	sb	zero,64(a5)
C:\Users\Astap\Desktop\CH583EVT\EVT\EXAM\SRC\StdPeriphDriver\inc/CH58x_sys.h:196
   write_csr(0x800, read_csr(0x800)|(IRQ_STA&0x08));
200004d6:	800026f3          	csrr	a3,0x800
200004da:	431c                	lw	a5,0(a4)
200004dc:	8ba1                	andi	a5,a5,8
200004de:	8fd5                	or	a5,a5,a3
200004e0:	80079073          	csrw	0x800,a5
C:\Users\Astap\Desktop\CH583EVT\EVT\EXAM\SRC\StdPeriphDriver\inc/CH58x_sys.h:197
   IRQ_STA = 0;
200004e4:	8001a423          	sw	zero,-2040(gp) # 20000b90 <_edata>
C:\Users\Astap\Desktop\CH583EVT\EVT\EXAM\SRC\StdPeriphDriver\inc/CH58x_sys.h:198
   SAFEOPERATE;
200004e8:	0001                	nop
200004ea:	0001                	nop
sys_safe_access_enable():
C:\Users\Astap\Desktop\CH583EVT\EVT\EXAM\SRC\StdPeriphDriver\inc/CH58x_sys.h:182
   if(read_csr(0x800)&0x08)
200004ec:	800027f3          	csrr	a5,0x800
200004f0:	8ba1                	andi	a5,a5,8
200004f2:	cb89                	beqz	a5,20000504 <HardFault_Handler+0x7a>
C:\Users\Astap\Desktop\CH583EVT\EVT\EXAM\SRC\StdPeriphDriver\inc/CH58x_sys.h:184
       IRQ_STA = read_csr(0x800);
200004f4:	800027f3          	csrr	a5,0x800
200004f8:	80f1a423          	sw	a5,-2040(gp) # 20000b90 <_edata>
C:\Users\Astap\Desktop\CH583EVT\EVT\EXAM\SRC\StdPeriphDriver\inc/CH58x_sys.h:185
       write_csr(0x800, (IRQ_STA&(~0x08)));
200004fc:	431c                	lw	a5,0(a4)
200004fe:	9bdd                	andi	a5,a5,-9
20000500:	80079073          	csrw	0x800,a5
C:\Users\Astap\Desktop\CH583EVT\EVT\EXAM\SRC\StdPeriphDriver\inc/CH58x_sys.h:187
   SAFEOPERATE;
20000504:	0001                	nop
20000506:	0001                	nop
C:\Users\Astap\Desktop\CH583EVT\EVT\EXAM\SRC\StdPeriphDriver\inc/CH58x_sys.h:188
   R8_SAFE_ACCESS_SIG = SAFE_ACCESS_SIG1;
20000508:	400017b7          	lui	a5,0x40001
2000050c:	05700693          	li	a3,87
20000510:	04d78023          	sb	a3,64(a5) # 40001040 <_eusrstack+0x1fff9040>
C:\Users\Astap\Desktop\CH583EVT\EVT\EXAM\SRC\StdPeriphDriver\inc/CH58x_sys.h:189
   R8_SAFE_ACCESS_SIG = SAFE_ACCESS_SIG2;
20000514:	fa800693          	li	a3,-88
20000518:	04d78023          	sb	a3,64(a5)
C:\Users\Astap\Desktop\CH583EVT\EVT\EXAM\SRC\StdPeriphDriver\inc/CH58x_sys.h:190
   SAFEOPERATE;
2000051c:	0001                	nop
2000051e:	0001                	nop
HardFault_Handler():
C:/Users/Astap/Desktop/CH583EVT/EVT/EXAM/SRC/StdPeriphDriver/CH58x_sys.c:308
	sys_safe_access_disable();
    sys_safe_access_enable();
    R8_RST_WDOG_CTRL |= RB_SOFTWARE_RESET;
20000520:	0467c683          	lbu	a3,70(a5)
20000524:	0016e693          	ori	a3,a3,1
20000528:	04d78323          	sb	a3,70(a5)
sys_safe_access_disable():
C:\Users\Astap\Desktop\CH583EVT\EVT\EXAM\SRC\StdPeriphDriver\inc/CH58x_sys.h:195
   R8_SAFE_ACCESS_SIG = 0;
2000052c:	04078023          	sb	zero,64(a5)
C:\Users\Astap\Desktop\CH583EVT\EVT\EXAM\SRC\StdPeriphDriver\inc/CH58x_sys.h:196
   write_csr(0x800, read_csr(0x800)|(IRQ_STA&0x08));
20000530:	800026f3          	csrr	a3,0x800
20000534:	431c                	lw	a5,0(a4)
20000536:	8ba1                	andi	a5,a5,8
20000538:	8fd5                	or	a5,a5,a3
2000053a:	80079073          	csrw	0x800,a5
C:\Users\Astap\Desktop\CH583EVT\EVT\EXAM\SRC\StdPeriphDriver\inc/CH58x_sys.h:197
   IRQ_STA = 0;
2000053e:	8001a423          	sw	zero,-2040(gp) # 20000b90 <_edata>
C:\Users\Astap\Desktop\CH583EVT\EVT\EXAM\SRC\StdPeriphDriver\inc/CH58x_sys.h:198
   SAFEOPERATE;
20000542:	0001                	nop
20000544:	0001                	nop
HardFault_Handler():
C:/Users/Astap/Desktop/CH583EVT/EVT/EXAM/SRC/StdPeriphDriver/CH58x_sys.c:310 (discriminator 1)
    sys_safe_access_disable();
    while(1);
20000546:	a001                	j	20000546 <HardFault_Handler+0xbc>

20000548 <mDelayuS>:
mDelayuS():
C:/Users/Astap/Desktop/CH583EVT/EVT/EXAM/SRC/StdPeriphDriver/CH58x_sys.c:329
{
    uint32_t i;
#if(FREQ_SYS == 80000000)
    i = t * 20;
#elif(FREQ_SYS == 60000000)
    i = t * 15;
20000548:	47bd                	li	a5,15
2000054a:	02f50533          	mul	a0,a0,a5
C:/Users/Astap/Desktop/CH583EVT/EVT/EXAM/SRC/StdPeriphDriver/CH58x_sys.c:353 (discriminator 1)
#else
    i = t << 1;
#endif
    do
    {
        __nop();
2000054e:	0001                	nop
C:/Users/Astap/Desktop/CH583EVT/EVT/EXAM/SRC/StdPeriphDriver/CH58x_sys.c:354 (discriminator 1)
    } while(--i);
20000550:	157d                	addi	a0,a0,-1
20000552:	fd75                	bnez	a0,2000054e <mDelayuS+0x6>
C:/Users/Astap/Desktop/CH583EVT/EVT/EXAM/SRC/StdPeriphDriver/CH58x_sys.c:355
}
20000554:	8082                	ret

20000556 <mDelaymS>:
mDelaymS():
C:/Users/Astap/Desktop/CH583EVT/EVT/EXAM/SRC/StdPeriphDriver/CH58x_sys.c:368
 *
 * @return  none
 */
__HIGH_CODE
void mDelaymS(uint16_t t)
{
20000556:	1141                	addi	sp,sp,-16
20000558:	c422                	sw	s0,8(sp)
2000055a:	c226                	sw	s1,4(sp)
2000055c:	c606                	sw	ra,12(sp)
2000055e:	84aa                	mv	s1,a0
C:/Users/Astap/Desktop/CH583EVT/EVT/EXAM/SRC/StdPeriphDriver/CH58x_sys.c:371
    uint16_t i;

    for(i = 0; i < t; i++)
20000560:	4401                	li	s0,0
C:/Users/Astap/Desktop/CH583EVT/EVT/EXAM/SRC/StdPeriphDriver/CH58x_sys.c:371 (discriminator 1)
20000562:	00941763          	bne	s0,s1,20000570 <mDelaymS+0x1a>
C:/Users/Astap/Desktop/CH583EVT/EVT/EXAM/SRC/StdPeriphDriver/CH58x_sys.c:375
    {
        mDelayuS(1000);
    }
}
20000566:	40b2                	lw	ra,12(sp)
20000568:	4422                	lw	s0,8(sp)
2000056a:	4492                	lw	s1,4(sp)
2000056c:	0141                	addi	sp,sp,16
2000056e:	8082                	ret
C:/Users/Astap/Desktop/CH583EVT/EVT/EXAM/SRC/StdPeriphDriver/CH58x_sys.c:371 (discriminator 3)
    for(i = 0; i < t; i++)
20000570:	0405                	addi	s0,s0,1
C:/Users/Astap/Desktop/CH583EVT/EVT/EXAM/SRC/StdPeriphDriver/CH58x_sys.c:373 (discriminator 3)
        mDelayuS(1000);
20000572:	3e800513          	li	a0,1000
C:/Users/Astap/Desktop/CH583EVT/EVT/EXAM/SRC/StdPeriphDriver/CH58x_sys.c:371 (discriminator 3)
    for(i = 0; i < t; i++)
20000576:	0442                	slli	s0,s0,0x10
C:/Users/Astap/Desktop/CH583EVT/EVT/EXAM/SRC/StdPeriphDriver/CH58x_sys.c:373 (discriminator 3)
        mDelayuS(1000);
20000578:	3fc1                	jal	20000548 <mDelayuS>
C:/Users/Astap/Desktop/CH583EVT/EVT/EXAM/SRC/StdPeriphDriver/CH58x_sys.c:371 (discriminator 3)
    for(i = 0; i < t; i++)
2000057a:	8041                	srli	s0,s0,0x10
2000057c:	b7dd                	j	20000562 <mDelaymS+0xc>

2000057e <RTC_IRQHandler>:
RTC_IRQHandler():
C:/Users/Astap/Desktop/CH583EVT/EVT/EXAM/BLE/HAL/RTC.c:59
 */
__INTERRUPT
__HIGH_CODE
void RTC_IRQHandler(void)
{
    R8_RTC_FLAG_CTRL = (RB_RTC_TMR_CLR | RB_RTC_TRIG_CLR);
2000057e:	400017b7          	lui	a5,0x40001
20000582:	03000713          	li	a4,48
20000586:	02e78823          	sb	a4,48(a5) # 40001030 <_eusrstack+0x1fff9030>
C:/Users/Astap/Desktop/CH583EVT/EVT/EXAM/BLE/HAL/RTC.c:60
    RTCTigFlag = 1;
2000058a:	4785                	li	a5,1
2000058c:	80f1aa23          	sw	a5,-2028(gp) # 20000b9c <RTCTigFlag>
C:/Users/Astap/Desktop/CH583EVT/EVT/EXAM/BLE/HAL/RTC.c:61
}
20000590:	30200073          	mret

20000594 <USB_IRQHandler>:
USB_IRQHandler():
C:\Users\Astap\Desktop\CH583EVT\EVT\EXAM\BLE\Direct_Test_Mode\obj/../APP/app_usb.c:529
 */
__attribute__((interrupt("WCH-Interrupt-fast")))
__attribute__((section(".highcode")))
void USB_IRQHandler( void ) /* USB中断服务程序,使用寄存器组1 */
{
   USB_DevTransProcess();
20000594:	e0001097          	auipc	ra,0xe0001
20000598:	998080e7          	jalr	-1640(ra) # f2c <USB_DevTransProcess>
C:\Users\Astap\Desktop\CH583EVT\EVT\EXAM\BLE\Direct_Test_Mode\obj/../APP/app_usb.c:530
}
2000059c:	30200073          	mret

200005a0 <UART0_IRQHandler>:
UART0_IRQHandler():
C:\Users\Astap\Desktop\CH583EVT\EVT\EXAM\BLE\Direct_Test_Mode\obj/../APP/uart.c:361
__HIGH_CODE
void UART0_IRQHandler(void)
{
    volatile uint8_t i;

    switch(UART0_GetITFlag())
200005a0:	40003737          	lui	a4,0x40003
200005a4:	00474783          	lbu	a5,4(a4) # 40003004 <_eusrstack+0x1fffb004>
200005a8:	4699                	li	a3,6
200005aa:	8bbd                	andi	a5,a5,15
200005ac:	06d78663          	beq	a5,a3,20000618 <UART0_IRQHandler+0x78>
C:\Users\Astap\Desktop\CH583EVT\EVT\EXAM\BLE\Direct_Test_Mode\obj/../APP/uart.c:358
{
200005b0:	1101                	addi	sp,sp,-32
200005b2:	ce22                	sw	s0,28(sp)
200005b4:	cc26                	sw	s1,24(sp)
200005b6:	ca4a                	sw	s2,20(sp)
200005b8:	4731                	li	a4,12
200005ba:	02e79b63          	bne	a5,a4,200005f0 <UART0_IRQHandler+0x50>
C:\Users\Astap\Desktop\CH583EVT\EVT\EXAM\BLE\Direct_Test_Mode\obj/../APP/uart.c:377
                simple_buf_add_u8(uart_buf, UART0_RecvByte());
            }
            break;

        case UART_II_RECV_TOUT: // 接收超时，暂时一帧数据接收完成
            while(R8_UART0_RFC)
200005be:	40003437          	lui	s0,0x40003
C:\Users\Astap\Desktop\CH583EVT\EVT\EXAM\BLE\Direct_Test_Mode\obj/../APP/uart.c:379
            {
                simple_buf_add_u8(uart_buf, UART0_RecvByte());
200005c2:	82018493          	addi	s1,gp,-2016 # 20000ba8 <uart_buf>
C:\Users\Astap\Desktop\CH583EVT\EVT\EXAM\BLE\Direct_Test_Mode\obj/../APP/uart.c:377
            while(R8_UART0_RFC)
200005c6:	00a44783          	lbu	a5,10(s0) # 4000300a <_eusrstack+0x1fffb00a>
200005ca:	0ff7f793          	andi	a5,a5,255
200005ce:	ebad                	bnez	a5,20000640 <UART0_IRQHandler+0xa0>
C:\Users\Astap\Desktop\CH583EVT\EVT\EXAM\BLE\Direct_Test_Mode\obj/../APP/uart.c:381
            }
            atomic_set(&uart_flag, UART_STATUS_RCV_END);
200005d0:	4589                	li	a1,2
200005d2:	82418513          	addi	a0,gp,-2012 # 20000bac <uart_flag>
200005d6:	e0001097          	auipc	ra,0xe0001
200005da:	ea0080e7          	jalr	-352(ra) # 1476 <atomic_set>
PFIC_DisableIRQ():
C:\Users\Astap\Desktop\CH583EVT\EVT\EXAM\SRC\RVMSIS/core_riscv.h:124
 *
 * @param   IRQn    - Interrupt Numbers
 */
RV_STATIC_INLINE void PFIC_DisableIRQ(IRQn_Type IRQn)
{
    PFIC->IRER[((uint32_t)(IRQn) >> 5)] = (1 << ((uint32_t)(IRQn)&0x1F));
200005de:	e000e7b7          	lui	a5,0xe000e
200005e2:	04000737          	lui	a4,0x4000
200005e6:	18e7a023          	sw	a4,384(a5) # e000e180 <_eusrstack+0xc0006180>
C:\Users\Astap\Desktop\CH583EVT\EVT\EXAM\SRC\RVMSIS/core_riscv.h:125
    __nop();
200005ea:	0001                	nop
C:\Users\Astap\Desktop\CH583EVT\EVT\EXAM\SRC\RVMSIS/core_riscv.h:126
    __nop();
200005ec:	0001                	nop
UART0_IRQHandler():
C:\Users\Astap\Desktop\CH583EVT\EVT\EXAM\BLE\Direct_Test_Mode\obj/../APP/uart.c:394
            break;

        default:
            break;
    }
}
200005ee:	a839                	j	2000060c <UART0_IRQHandler+0x6c>
200005f0:	4711                	li	a4,4
200005f2:	00e79d63          	bne	a5,a4,2000060c <UART0_IRQHandler+0x6c>
C:\Users\Astap\Desktop\CH583EVT\EVT\EXAM\BLE\Direct_Test_Mode\obj/../APP/uart.c:370
            for(i = 0; i < (7 - 1); i++)
200005f6:	000107a3          	sb	zero,15(sp)
200005fa:	4415                	li	s0,5
C:\Users\Astap\Desktop\CH583EVT\EVT\EXAM\BLE\Direct_Test_Mode\obj/../APP/uart.c:372
                simple_buf_add_u8(uart_buf, UART0_RecvByte());
200005fc:	400034b7          	lui	s1,0x40003
20000600:	82018913          	addi	s2,gp,-2016 # 20000ba8 <uart_buf>
C:\Users\Astap\Desktop\CH583EVT\EVT\EXAM\BLE\Direct_Test_Mode\obj/../APP/uart.c:370 (discriminator 1)
            for(i = 0; i < (7 - 1); i++)
20000604:	00f14783          	lbu	a5,15(sp)
20000608:	00f47c63          	bgeu	s0,a5,20000620 <UART0_IRQHandler+0x80>
C:\Users\Astap\Desktop\CH583EVT\EVT\EXAM\BLE\Direct_Test_Mode\obj/../APP/uart.c:394
}
2000060c:	4472                	lw	s0,28(sp)
2000060e:	44e2                	lw	s1,24(sp)
20000610:	4952                	lw	s2,20(sp)
20000612:	6105                	addi	sp,sp,32
20000614:	30200073          	mret
C:\Users\Astap\Desktop\CH583EVT\EVT\EXAM\BLE\Direct_Test_Mode\obj/../APP/uart.c:365
            (void)UART0_GetLinSTA();
20000618:	00574783          	lbu	a5,5(a4) # 4000005 <_data_lma+0x3ffde75>
C:\Users\Astap\Desktop\CH583EVT\EVT\EXAM\BLE\Direct_Test_Mode\obj/../APP/uart.c:366
            break;
2000061c:	30200073          	mret
C:\Users\Astap\Desktop\CH583EVT\EVT\EXAM\BLE\Direct_Test_Mode\obj/../APP/uart.c:372 (discriminator 3)
                simple_buf_add_u8(uart_buf, UART0_RecvByte());
20000620:	0084c583          	lbu	a1,8(s1) # 40003008 <_eusrstack+0x1fffb008>
20000624:	00092503          	lw	a0,0(s2)
20000628:	e0001097          	auipc	ra,0xe0001
2000062c:	dce080e7          	jalr	-562(ra) # 13f6 <simple_buf_add_u8>
C:\Users\Astap\Desktop\CH583EVT\EVT\EXAM\BLE\Direct_Test_Mode\obj/../APP/uart.c:370 (discriminator 3)
            for(i = 0; i < (7 - 1); i++)
20000630:	00f14783          	lbu	a5,15(sp)
20000634:	0785                	addi	a5,a5,1
20000636:	0ff7f793          	andi	a5,a5,255
2000063a:	00f107a3          	sb	a5,15(sp)
2000063e:	b7d9                	j	20000604 <UART0_IRQHandler+0x64>
C:\Users\Astap\Desktop\CH583EVT\EVT\EXAM\BLE\Direct_Test_Mode\obj/../APP/uart.c:379
                simple_buf_add_u8(uart_buf, UART0_RecvByte());
20000640:	00844583          	lbu	a1,8(s0)
20000644:	4088                	lw	a0,0(s1)
20000646:	e0001097          	auipc	ra,0xe0001
2000064a:	db0080e7          	jalr	-592(ra) # 13f6 <simple_buf_add_u8>
2000064e:	bfa5                	j	200005c6 <UART0_IRQHandler+0x26>

20000650 <UART1_IRQHandler>:
UART1_IRQHandler():
C:\Users\Astap\Desktop\CH583EVT\EVT\EXAM\BLE\Direct_Test_Mode\obj/../APP/uart.c:409
__HIGH_CODE
void UART1_IRQHandler(void)
{
    volatile uint8_t i;

    switch(UART1_GetITFlag())
20000650:	40003737          	lui	a4,0x40003
20000654:	40474783          	lbu	a5,1028(a4) # 40003404 <_eusrstack+0x1fffb404>
20000658:	4699                	li	a3,6
2000065a:	8bbd                	andi	a5,a5,15
2000065c:	06d78663          	beq	a5,a3,200006c8 <UART1_IRQHandler+0x78>
C:\Users\Astap\Desktop\CH583EVT\EVT\EXAM\BLE\Direct_Test_Mode\obj/../APP/uart.c:406
{
20000660:	1101                	addi	sp,sp,-32
20000662:	ce22                	sw	s0,28(sp)
20000664:	cc26                	sw	s1,24(sp)
20000666:	ca4a                	sw	s2,20(sp)
20000668:	4731                	li	a4,12
2000066a:	02e79b63          	bne	a5,a4,200006a0 <UART1_IRQHandler+0x50>
C:\Users\Astap\Desktop\CH583EVT\EVT\EXAM\BLE\Direct_Test_Mode\obj/../APP/uart.c:425
                simple_buf_add_u8(uart_buf, UART1_RecvByte());
            }
            break;

        case UART_II_RECV_TOUT: // 接收超时，暂时一帧数据接收完成
            while(R8_UART1_RFC)
2000066e:	40003437          	lui	s0,0x40003
C:\Users\Astap\Desktop\CH583EVT\EVT\EXAM\BLE\Direct_Test_Mode\obj/../APP/uart.c:427
            {
                simple_buf_add_u8(uart_buf, UART1_RecvByte());
20000672:	82018493          	addi	s1,gp,-2016 # 20000ba8 <uart_buf>
C:\Users\Astap\Desktop\CH583EVT\EVT\EXAM\BLE\Direct_Test_Mode\obj/../APP/uart.c:425
            while(R8_UART1_RFC)
20000676:	40a44783          	lbu	a5,1034(s0) # 4000340a <_eusrstack+0x1fffb40a>
2000067a:	0ff7f793          	andi	a5,a5,255
2000067e:	ebad                	bnez	a5,200006f0 <UART1_IRQHandler+0xa0>
C:\Users\Astap\Desktop\CH583EVT\EVT\EXAM\BLE\Direct_Test_Mode\obj/../APP/uart.c:429
            }
            atomic_set(&uart_flag, UART_STATUS_RCV_END);
20000680:	4589                	li	a1,2
20000682:	82418513          	addi	a0,gp,-2012 # 20000bac <uart_flag>
20000686:	e0001097          	auipc	ra,0xe0001
2000068a:	df0080e7          	jalr	-528(ra) # 1476 <atomic_set>
PFIC_DisableIRQ():
C:\Users\Astap\Desktop\CH583EVT\EVT\EXAM\SRC\RVMSIS/core_riscv.h:124
    PFIC->IRER[((uint32_t)(IRQn) >> 5)] = (1 << ((uint32_t)(IRQn)&0x1F));
2000068e:	e000e7b7          	lui	a5,0xe000e
20000692:	08000737          	lui	a4,0x8000
20000696:	18e7a023          	sw	a4,384(a5) # e000e180 <_eusrstack+0xc0006180>
C:\Users\Astap\Desktop\CH583EVT\EVT\EXAM\SRC\RVMSIS/core_riscv.h:125
    __nop();
2000069a:	0001                	nop
C:\Users\Astap\Desktop\CH583EVT\EVT\EXAM\SRC\RVMSIS/core_riscv.h:126
    __nop();
2000069c:	0001                	nop
UART1_IRQHandler():
C:\Users\Astap\Desktop\CH583EVT\EVT\EXAM\BLE\Direct_Test_Mode\obj/../APP/uart.c:439
            break;

        default:
            break;
    }
}
2000069e:	a839                	j	200006bc <UART1_IRQHandler+0x6c>
200006a0:	4711                	li	a4,4
200006a2:	00e79d63          	bne	a5,a4,200006bc <UART1_IRQHandler+0x6c>
C:\Users\Astap\Desktop\CH583EVT\EVT\EXAM\BLE\Direct_Test_Mode\obj/../APP/uart.c:418
            for(i = 0; i < (7 - 1); i++)
200006a6:	000107a3          	sb	zero,15(sp)
200006aa:	4415                	li	s0,5
C:\Users\Astap\Desktop\CH583EVT\EVT\EXAM\BLE\Direct_Test_Mode\obj/../APP/uart.c:420
                simple_buf_add_u8(uart_buf, UART1_RecvByte());
200006ac:	400034b7          	lui	s1,0x40003
200006b0:	82018913          	addi	s2,gp,-2016 # 20000ba8 <uart_buf>
C:\Users\Astap\Desktop\CH583EVT\EVT\EXAM\BLE\Direct_Test_Mode\obj/../APP/uart.c:418 (discriminator 1)
            for(i = 0; i < (7 - 1); i++)
200006b4:	00f14783          	lbu	a5,15(sp)
200006b8:	00f47c63          	bgeu	s0,a5,200006d0 <UART1_IRQHandler+0x80>
C:\Users\Astap\Desktop\CH583EVT\EVT\EXAM\BLE\Direct_Test_Mode\obj/../APP/uart.c:439
}
200006bc:	4472                	lw	s0,28(sp)
200006be:	44e2                	lw	s1,24(sp)
200006c0:	4952                	lw	s2,20(sp)
200006c2:	6105                	addi	sp,sp,32
200006c4:	30200073          	mret
C:\Users\Astap\Desktop\CH583EVT\EVT\EXAM\BLE\Direct_Test_Mode\obj/../APP/uart.c:413
            (void)UART1_GetLinSTA();
200006c8:	40574783          	lbu	a5,1029(a4) # 8000405 <_data_lma+0x7ffe275>
C:\Users\Astap\Desktop\CH583EVT\EVT\EXAM\BLE\Direct_Test_Mode\obj/../APP/uart.c:414
            break;
200006cc:	30200073          	mret
C:\Users\Astap\Desktop\CH583EVT\EVT\EXAM\BLE\Direct_Test_Mode\obj/../APP/uart.c:420 (discriminator 3)
                simple_buf_add_u8(uart_buf, UART1_RecvByte());
200006d0:	4084c583          	lbu	a1,1032(s1) # 40003408 <_eusrstack+0x1fffb408>
200006d4:	00092503          	lw	a0,0(s2)
200006d8:	e0001097          	auipc	ra,0xe0001
200006dc:	d1e080e7          	jalr	-738(ra) # 13f6 <simple_buf_add_u8>
C:\Users\Astap\Desktop\CH583EVT\EVT\EXAM\BLE\Direct_Test_Mode\obj/../APP/uart.c:418 (discriminator 3)
            for(i = 0; i < (7 - 1); i++)
200006e0:	00f14783          	lbu	a5,15(sp)
200006e4:	0785                	addi	a5,a5,1
200006e6:	0ff7f793          	andi	a5,a5,255
200006ea:	00f107a3          	sb	a5,15(sp)
200006ee:	b7d9                	j	200006b4 <UART1_IRQHandler+0x64>
C:\Users\Astap\Desktop\CH583EVT\EVT\EXAM\BLE\Direct_Test_Mode\obj/../APP/uart.c:427
                simple_buf_add_u8(uart_buf, UART1_RecvByte());
200006f0:	40844583          	lbu	a1,1032(s0)
200006f4:	4088                	lw	a0,0(s1)
200006f6:	e0001097          	auipc	ra,0xe0001
200006fa:	d00080e7          	jalr	-768(ra) # 13f6 <simple_buf_add_u8>
200006fe:	bfa5                	j	20000676 <UART1_IRQHandler+0x26>

20000700 <FLASH_ROM_BEG>:
FLASH_ROM_BEG():
20000700:	80040323          	sb	zero,-2042(s0)
20000704:	4715                	li	a4,5
20000706:	80e40323          	sb	a4,-2042(s0)
2000070a:	0001                	nop
2000070c:	80a40223          	sb	a0,-2044(s0)
20000710:	8082                	ret

20000712 <FLASH_ROM_END>:
FLASH_ROM_END():
20000712:	80640783          	lb	a5,-2042(s0)
20000716:	fe07cee3          	bltz	a5,20000712 <FLASH_ROM_END>
2000071a:	80040323          	sb	zero,-2042(s0)
2000071e:	8082                	ret

20000720 <FLASH_ROM_IN>:
FLASH_ROM_IN():
20000720:	80640783          	lb	a5,-2042(s0)
20000724:	fe07cee3          	bltz	a5,20000720 <FLASH_ROM_IN>
20000728:	80444503          	lbu	a0,-2044(s0)
2000072c:	8082                	ret

2000072e <FLASH_ROM_OUT>:
FLASH_ROM_OUT():
2000072e:	80640783          	lb	a5,-2042(s0)
20000732:	fe07cee3          	bltz	a5,2000072e <FLASH_ROM_OUT>
20000736:	80a40223          	sb	a0,-2044(s0)
2000073a:	8082                	ret

2000073c <FLASH_ROM_ADDR>:
FLASH_ROM_ADDR():
2000073c:	1141                	addi	sp,sp,-16
2000073e:	c426                	sw	s1,8(sp)
20000740:	c24a                	sw	s2,4(sp)
20000742:	c04e                	sw	s3,0(sp)
20000744:	c606                	sw	ra,12(sp)
20000746:	0bf57713          	andi	a4,a0,191
2000074a:	47ad                	li	a5,11
2000074c:	89aa                	mv	s3,a0
2000074e:	892e                	mv	s2,a1
20000750:	4495                	li	s1,5
20000752:	00f70663          	beq	a4,a5,2000075e <FLASH_ROM_ADDR+0x22>
20000756:	4519                	li	a0,6
20000758:	3765                	jal	20000700 <FLASH_ROM_BEG>
2000075a:	3f65                	jal	20000712 <FLASH_ROM_END>
2000075c:	448d                	li	s1,3
2000075e:	854e                	mv	a0,s3
20000760:	3745                	jal	20000700 <FLASH_ROM_BEG>
20000762:	59fd                	li	s3,-1
20000764:	14fd                	addi	s1,s1,-1
20000766:	01349863          	bne	s1,s3,20000776 <FLASH_ROM_ADDR+0x3a>
2000076a:	40b2                	lw	ra,12(sp)
2000076c:	44a2                	lw	s1,8(sp)
2000076e:	4912                	lw	s2,4(sp)
20000770:	4982                	lw	s3,0(sp)
20000772:	0141                	addi	sp,sp,16
20000774:	8082                	ret
20000776:	01095513          	srli	a0,s2,0x10
2000077a:	0ff57513          	andi	a0,a0,255
2000077e:	3f45                	jal	2000072e <FLASH_ROM_OUT>
20000780:	0922                	slli	s2,s2,0x8
20000782:	b7cd                	j	20000764 <FLASH_ROM_ADDR+0x28>

20000784 <FLASH_ROM_WAIT>:
FLASH_ROM_WAIT():
20000784:	1101                	addi	sp,sp,-32
20000786:	cc26                	sw	s1,24(sp)
20000788:	ce06                	sw	ra,28(sp)
2000078a:	000804b7          	lui	s1,0x80
2000078e:	3751                	jal	20000712 <FLASH_ROM_END>
20000790:	4515                	li	a0,5
20000792:	37bd                	jal	20000700 <FLASH_ROM_BEG>
20000794:	3771                	jal	20000720 <FLASH_ROM_IN>
20000796:	3769                	jal	20000720 <FLASH_ROM_IN>
20000798:	c62a                	sw	a0,12(sp)
2000079a:	3fa5                	jal	20000712 <FLASH_ROM_END>
2000079c:	4532                	lw	a0,12(sp)
2000079e:	00157793          	andi	a5,a0,1
200007a2:	eb89                	bnez	a5,200007b4 <FLASH_ROM_WAIT+0x30>
200007a4:	00156513          	ori	a0,a0,1
200007a8:	0ff57513          	andi	a0,a0,255
200007ac:	40f2                	lw	ra,28(sp)
200007ae:	44e2                	lw	s1,24(sp)
200007b0:	6105                	addi	sp,sp,32
200007b2:	8082                	ret
200007b4:	14fd                	addi	s1,s1,-1
200007b6:	fce9                	bnez	s1,20000790 <FLASH_ROM_WAIT+0xc>
200007b8:	4501                	li	a0,0
200007ba:	bfcd                	j	200007ac <FLASH_ROM_WAIT+0x28>

200007bc <FLASH_EEPROM_CMD>:
FLASH_EEPROM_CMD():
200007bc:	7139                	addi	sp,sp,-64
200007be:	dc26                	sw	s1,56(sp)
200007c0:	da4a                	sw	s2,52(sp)
200007c2:	d84e                	sw	s3,48(sp)
200007c4:	d652                	sw	s4,44(sp)
200007c6:	d456                	sw	s5,40(sp)
200007c8:	d25a                	sw	s6,36(sp)
200007ca:	d05e                	sw	s7,32(sp)
200007cc:	de06                	sw	ra,60(sp)
200007ce:	ce62                	sw	s8,28(sp)
200007d0:	cc66                	sw	s9,24(sp)
200007d2:	e000e7b7          	lui	a5,0xe000e
200007d6:	577d                	li	a4,-1
200007d8:	0007aa83          	lw	s5,0(a5) # e000e000 <_eusrstack+0xc0006000>
200007dc:	c622                	sw	s0,12(sp)
200007de:	0047aa03          	lw	s4,4(a5)
200007e2:	18e7a023          	sw	a4,384(a5)
200007e6:	18e7a223          	sw	a4,388(a5)
200007ea:	400017b7          	lui	a5,0x40001
200007ee:	05700713          	li	a4,87
200007f2:	04e78023          	sb	a4,64(a5) # 40001040 <_eusrstack+0x1fff9040>
200007f6:	fa800713          	li	a4,-88
200007fa:	04e78023          	sb	a4,64(a5)
200007fe:	0447c783          	lbu	a5,68(a5)
20000802:	ff750b93          	addi	s7,a0,-9
20000806:	84b6                	mv	s1,a3
20000808:	07e2                	slli	a5,a5,0x18
2000080a:	0ffbfb93          	andi	s7,s7,255
2000080e:	4685                	li	a3,1
20000810:	89aa                	mv	s3,a0
20000812:	8b2e                	mv	s6,a1
20000814:	8932                	mv	s2,a2
20000816:	40002437          	lui	s0,0x40002
2000081a:	87e1                	srai	a5,a5,0x18
2000081c:	5701                	li	a4,-32
2000081e:	0176fa63          	bgeu	a3,s7,20000832 <FLASH_EEPROM_CMD+0x76>
20000822:	00d50863          	beq	a0,a3,20000832 <FLASH_EEPROM_CMD+0x76>
20000826:	4689                	li	a3,2
20000828:	02000713          	li	a4,32
2000082c:	00d51363          	bne	a0,a3,20000832 <FLASH_EEPROM_CMD+0x76>
20000830:	5701                	li	a4,-32
20000832:	8fd9                	or	a5,a5,a4
20000834:	0ff7f793          	andi	a5,a5,255
20000838:	40001cb7          	lui	s9,0x40001
2000083c:	04fc8223          	sb	a5,68(s9) # 40001044 <_eusrstack+0x1fff9044>
20000840:	4711                	li	a4,4
20000842:	80e40323          	sb	a4,-2042(s0) # 40001806 <_eusrstack+0x1fff9806>
20000846:	0ff00513          	li	a0,255
2000084a:	3d5d                	jal	20000700 <FLASH_ROM_BEG>
2000084c:	4c09                	li	s8,2
2000084e:	35d1                	jal	20000712 <FLASH_ROM_END>
20000850:	117c6d63          	bltu	s8,s7,2000096a <FLASH_EEPROM_CMD+0x1ae>
20000854:	000705b7          	lui	a1,0x70
20000858:	95da                	add	a1,a1,s6
2000085a:	00078737          	lui	a4,0x78
2000085e:	5579                	li	a0,-2
20000860:	04e5f263          	bgeu	a1,a4,200008a4 <FLASH_EEPROM_CMD+0xe8>
20000864:	009587b3          	add	a5,a1,s1
20000868:	02f76e63          	bltu	a4,a5,200008a4 <FLASH_EEPROM_CMD+0xe8>
2000086c:	00080b37          	lui	s6,0x80
20000870:	47a9                	li	a5,10
20000872:	0165eb33          	or	s6,a1,s6
20000876:	06f99963          	bne	s3,a5,200008e8 <FLASH_EEPROM_CMD+0x12c>
2000087a:	e489                	bnez	s1,20000884 <FLASH_EEPROM_CMD+0xc8>
2000087c:	4481                	li	s1,0
2000087e:	3d51                	jal	20000712 <FLASH_ROM_END>
20000880:	8526                	mv	a0,s1
20000882:	a00d                	j	200008a4 <FLASH_EEPROM_CMD+0xe8>
20000884:	85da                	mv	a1,s6
20000886:	4509                	li	a0,2
20000888:	3d55                	jal	2000073c <FLASH_ROM_ADDR>
2000088a:	0905                	addi	s2,s2,1
2000088c:	fff94503          	lbu	a0,-1(s2)
20000890:	14fd                	addi	s1,s1,-1
20000892:	0b05                	addi	s6,s6,1
20000894:	3d69                	jal	2000072e <FLASH_ROM_OUT>
20000896:	c481                	beqz	s1,2000089e <FLASH_EEPROM_CMD+0xe2>
20000898:	0ffb7793          	andi	a5,s6,255
2000089c:	f7fd                	bnez	a5,2000088a <FLASH_EEPROM_CMD+0xce>
2000089e:	35dd                	jal	20000784 <FLASH_ROM_WAIT>
200008a0:	fd69                	bnez	a0,2000087a <FLASH_EEPROM_CMD+0xbe>
200008a2:	557d                	li	a0,-1
200008a4:	400017b7          	lui	a5,0x40001
200008a8:	05700713          	li	a4,87
200008ac:	04e78023          	sb	a4,64(a5) # 40001040 <_eusrstack+0x1fff9040>
200008b0:	fa800713          	li	a4,-88
200008b4:	04e78023          	sb	a4,64(a5)
200008b8:	0447c703          	lbu	a4,68(a5)
200008bc:	8b41                	andi	a4,a4,16
200008be:	04e78223          	sb	a4,68(a5)
200008c2:	50f2                	lw	ra,60(sp)
200008c4:	e000e7b7          	lui	a5,0xe000e
200008c8:	1157a023          	sw	s5,256(a5) # e000e100 <_eusrstack+0xc0006100>
200008cc:	1147a223          	sw	s4,260(a5)
200008d0:	54e2                	lw	s1,56(sp)
200008d2:	4432                	lw	s0,12(sp)
200008d4:	5952                	lw	s2,52(sp)
200008d6:	59c2                	lw	s3,48(sp)
200008d8:	5a32                	lw	s4,44(sp)
200008da:	5aa2                	lw	s5,40(sp)
200008dc:	5b12                	lw	s6,36(sp)
200008de:	5b82                	lw	s7,32(sp)
200008e0:	4c72                	lw	s8,28(sp)
200008e2:	4ce2                	lw	s9,24(sp)
200008e4:	6121                	addi	sp,sp,64
200008e6:	8082                	ret
200008e8:	47a5                	li	a5,9
200008ea:	06f99563          	bne	s3,a5,20000954 <FLASH_EEPROM_CMD+0x198>
200008ee:	6985                	lui	s3,0x1
200008f0:	0ff00913          	li	s2,255
200008f4:	009906b3          	add	a3,s2,s1
200008f8:	012b74b3          	and	s1,s6,s2
200008fc:	94b6                	add	s1,s1,a3
200008fe:	fff94913          	not	s2,s2
20000902:	009974b3          	and	s1,s2,s1
20000906:	6b85                	lui	s7,0x1
20000908:	01697933          	and	s2,s2,s6
2000090c:	6b41                	lui	s6,0x10
2000090e:	fff98793          	addi	a5,s3,-1 # fff <USB_DevTransProcess+0xd3>
20000912:	0127f7b3          	and	a5,a5,s2
20000916:	e399                	bnez	a5,2000091c <FLASH_EEPROM_CMD+0x160>
20000918:	0134fc63          	bgeu	s1,s3,20000930 <FLASH_EEPROM_CMD+0x174>
2000091c:	0049d993          	srli	s3,s3,0x4
20000920:	47c1                	li	a5,16
20000922:	ff37e6e3          	bltu	a5,s3,2000090e <FLASH_EEPROM_CMD+0x152>
20000926:	bf99                	j	2000087c <FLASH_EEPROM_CMD+0xc0>
20000928:	6905                	lui	s2,0x1
2000092a:	69c1                	lui	s3,0x10
2000092c:	197d                	addi	s2,s2,-1
2000092e:	b7d9                	j	200008f4 <FLASH_EEPROM_CMD+0x138>
20000930:	0d800513          	li	a0,216
20000934:	01698863          	beq	s3,s6,20000944 <FLASH_EEPROM_CMD+0x188>
20000938:	02000513          	li	a0,32
2000093c:	01798463          	beq	s3,s7,20000944 <FLASH_EEPROM_CMD+0x188>
20000940:	08100513          	li	a0,129
20000944:	85ca                	mv	a1,s2
20000946:	3bdd                	jal	2000073c <FLASH_ROM_ADDR>
20000948:	3d35                	jal	20000784 <FLASH_ROM_WAIT>
2000094a:	dd21                	beqz	a0,200008a2 <FLASH_EEPROM_CMD+0xe6>
2000094c:	994e                	add	s2,s2,s3
2000094e:	413484b3          	sub	s1,s1,s3
20000952:	b7d9                	j	20000918 <FLASH_EEPROM_CMD+0x15c>
20000954:	85da                	mv	a1,s6
20000956:	452d                	li	a0,11
20000958:	33d5                	jal	2000073c <FLASH_ROM_ADDR>
2000095a:	94ca                	add	s1,s1,s2
2000095c:	f29900e3          	beq	s2,s1,2000087c <FLASH_EEPROM_CMD+0xc0>
20000960:	0905                	addi	s2,s2,1
20000962:	3b7d                	jal	20000720 <FLASH_ROM_IN>
20000964:	fea90fa3          	sb	a0,-1(s2) # fff <USB_DevTransProcess+0xd3>
20000968:	bfd5                	j	2000095c <FLASH_EEPROM_CMD+0x1a0>
2000096a:	fff98793          	addi	a5,s3,-1 # ffff <_data_lma+0xde6f>
2000096e:	0ff7f793          	andi	a5,a5,255
20000972:	0cfc6163          	bltu	s8,a5,20000a34 <.loop402+0x7a>
20000976:	041cc783          	lbu	a5,65(s9)
2000097a:	08300713          	li	a4,131
2000097e:	04f71f63          	bne	a4,a5,200009dc <.loop402+0x22>
20000982:	00080737          	lui	a4,0x80
20000986:	04eb6b63          	bltu	s6,a4,200009dc <.loop402+0x22>
2000098a:	009b07b3          	add	a5,s6,s1
2000098e:	001006b7          	lui	a3,0x100
20000992:	04d7f563          	bgeu	a5,a3,200009dc <.loop402+0x22>
20000996:	00eb4b33          	xor	s6,s6,a4
2000099a:	4789                	li	a5,2
2000099c:	06f99363          	bne	s3,a5,20000a02 <.loop402+0x48>
200009a0:	8089                	srli	s1,s1,0x2
200009a2:	49d5                	li	s3,21
200009a4:	ec048ce3          	beqz	s1,2000087c <FLASH_EEPROM_CMD+0xc0>
200009a8:	85da                	mv	a1,s6
200009aa:	4509                	li	a0,2
200009ac:	3b41                	jal	2000073c <FLASH_ROM_ADDR>
200009ae:	0911                	addi	s2,s2,4
200009b0:	ffc92703          	lw	a4,-4(s2)
200009b4:	4791                	li	a5,4
200009b6:	80e42023          	sw	a4,-2048(s0)

200009ba <.loop402>:
200009ba:	80640703          	lb	a4,-2042(s0)
200009be:	fe074ee3          	bltz	a4,200009ba <.loop402>
200009c2:	81340323          	sb	s3,-2042(s0)
200009c6:	17fd                	addi	a5,a5,-1
200009c8:	fbed                	bnez	a5,200009ba <.loop402>
200009ca:	14fd                	addi	s1,s1,-1
200009cc:	0b11                	addi	s6,s6,4
200009ce:	c481                	beqz	s1,200009d6 <.loop402+0x1c>
200009d0:	0ffb7793          	andi	a5,s6,255
200009d4:	ffe9                	bnez	a5,200009ae <FLASH_EEPROM_CMD+0x1f2>
200009d6:	337d                	jal	20000784 <FLASH_ROM_WAIT>
200009d8:	f571                	bnez	a0,200009a4 <FLASH_EEPROM_CMD+0x1e8>
200009da:	b5e1                	j	200008a2 <FLASH_EEPROM_CMD+0xe6>
200009dc:	400017b7          	lui	a5,0x40001
200009e0:	0457c703          	lbu	a4,69(a5) # 40001045 <_eusrstack+0x1fff9045>
200009e4:	000807b7          	lui	a5,0x80
200009e8:	02077713          	andi	a4,a4,32
200009ec:	e319                	bnez	a4,200009f2 <.loop402+0x38>
200009ee:	000787b7          	lui	a5,0x78
200009f2:	5579                	li	a0,-2
200009f4:	eafb78e3          	bgeu	s6,a5,200008a4 <FLASH_EEPROM_CMD+0xe8>
200009f8:	009b0733          	add	a4,s6,s1
200009fc:	f8e7ffe3          	bgeu	a5,a4,2000099a <FLASH_EEPROM_CMD+0x1de>
20000a00:	b555                	j	200008a4 <FLASH_EEPROM_CMD+0xe8>
20000a02:	4785                	li	a5,1
20000a04:	f2f982e3          	beq	s3,a5,20000928 <FLASH_EEPROM_CMD+0x16c>
20000a08:	85da                	mv	a1,s6
20000a0a:	452d                	li	a0,11
20000a0c:	3b05                	jal	2000073c <FLASH_ROM_ADDR>
20000a0e:	fff48993          	addi	s3,s1,-1 # 7ffff <_data_lma+0x7de6f>
20000a12:	e60485e3          	beqz	s1,2000087c <FLASH_EEPROM_CMD+0xc0>
20000a16:	3329                	jal	20000720 <FLASH_ROM_IN>
20000a18:	0039f793          	andi	a5,s3,3
20000a1c:	eb91                	bnez	a5,20000a30 <.loop402+0x76>
20000a1e:	80042683          	lw	a3,-2048(s0)
20000a22:	00092703          	lw	a4,0(s2)
20000a26:	00490793          	addi	a5,s2,4
20000a2a:	e4e69ae3          	bne	a3,a4,2000087e <FLASH_EEPROM_CMD+0xc2>
20000a2e:	893e                	mv	s2,a5
20000a30:	84ce                	mv	s1,s3
20000a32:	bff1                	j	20000a0e <.loop402+0x54>
20000a34:	47b5                	li	a5,13
20000a36:	00f99663          	bne	s3,a5,20000a42 <.loop402+0x88>
20000a3a:	0b900513          	li	a0,185
20000a3e:	31c9                	jal	20000700 <FLASH_ROM_BEG>
20000a40:	bd35                	j	2000087c <FLASH_EEPROM_CMD+0xc0>
20000a42:	47b1                	li	a5,12
20000a44:	0ab00513          	li	a0,171
20000a48:	fef98be3          	beq	s3,a5,20000a3e <.loop402+0x84>
20000a4c:	4799                	li	a5,6
20000a4e:	04f99163          	bne	s3,a5,20000a90 <.loop402+0xd6>
20000a52:	000805b7          	lui	a1,0x80
20000a56:	00bb65b3          	or	a1,s6,a1
20000a5a:	452d                	li	a0,11
20000a5c:	31c5                	jal	2000073c <FLASH_ROM_ADDR>
20000a5e:	4481                	li	s1,0
20000a60:	4b8d                	li	s7,3
20000a62:	49a1                	li	s3,8
20000a64:	3975                	jal	20000720 <FLASH_ROM_IN>
20000a66:	01749663          	bne	s1,s7,20000a72 <.loop402+0xb8>
20000a6a:	80042783          	lw	a5,-2048(s0)
20000a6e:	00f92023          	sw	a5,0(s2)
20000a72:	0485                	addi	s1,s1,1
20000a74:	ff3498e3          	bne	s1,s3,20000a64 <.loop402+0xaa>
20000a78:	80042783          	lw	a5,-2048(s0)
20000a7c:	012b1713          	slli	a4,s6,0x12
20000a80:	00075563          	bgez	a4,20000a8a <.loop402+0xd0>
20000a84:	00f91223          	sh	a5,4(s2)
20000a88:	bbd5                	j	2000087c <FLASH_EEPROM_CMD+0xc0>
20000a8a:	00f92223          	sw	a5,4(s2)
20000a8e:	b3fd                	j	2000087c <FLASH_EEPROM_CMD+0xc0>
20000a90:	479d                	li	a5,7
20000a92:	02f99963          	bne	s3,a5,20000ac4 <.loop402+0x10a>
20000a96:	4581                	li	a1,0
20000a98:	04b00513          	li	a0,75
20000a9c:	3145                	jal	2000073c <FLASH_ROM_ADDR>
20000a9e:	44bd                	li	s1,15
20000aa0:	00092023          	sw	zero,0(s2)
20000aa4:	00092223          	sw	zero,4(s2)
20000aa8:	59fd                	li	s3,-1
20000aaa:	399d                	jal	20000720 <FLASH_ROM_IN>
20000aac:	0074f793          	andi	a5,s1,7
20000ab0:	97ca                	add	a5,a5,s2
20000ab2:	0007c703          	lbu	a4,0(a5) # 78000 <_data_lma+0x75e70>
20000ab6:	14fd                	addi	s1,s1,-1
20000ab8:	8d39                	xor	a0,a0,a4
20000aba:	00a78023          	sb	a0,0(a5)
20000abe:	ff3496e3          	bne	s1,s3,20000aaa <.loop402+0xf0>
20000ac2:	bb6d                	j	2000087c <FLASH_EEPROM_CMD+0xc0>
20000ac4:	47a1                	li	a5,8
20000ac6:	04f99263          	bne	s3,a5,20000b0a <.loop402+0x150>
20000aca:	396d                	jal	20000784 <FLASH_ROM_WAIT>
20000acc:	4481                	li	s1,0
20000ace:	000b0d63          	beqz	s6,20000ae8 <.loop402+0x12e>
20000ad2:	478d                	li	a5,3
20000ad4:	03c00493          	li	s1,60
20000ad8:	00fb0863          	beq	s6,a5,20000ae8 <.loop402+0x12e>
20000adc:	05000493          	li	s1,80
20000ae0:	018b0463          	beq	s6,s8,20000ae8 <.loop402+0x12e>
20000ae4:	04400493          	li	s1,68
20000ae8:	07c57513          	andi	a0,a0,124
20000aec:	d89508e3          	beq	a0,s1,2000087c <FLASH_EEPROM_CMD+0xc0>
20000af0:	4519                	li	a0,6
20000af2:	3139                	jal	20000700 <FLASH_ROM_BEG>
20000af4:	3939                	jal	20000712 <FLASH_ROM_END>
20000af6:	4505                	li	a0,1
20000af8:	3121                	jal	20000700 <FLASH_ROM_BEG>
20000afa:	8526                	mv	a0,s1
20000afc:	390d                	jal	2000072e <FLASH_ROM_OUT>
20000afe:	4509                	li	a0,2
20000b00:	313d                	jal	2000072e <FLASH_ROM_OUT>
20000b02:	3149                	jal	20000784 <FLASH_ROM_WAIT>
20000b04:	d6051ce3          	bnez	a0,2000087c <FLASH_EEPROM_CMD+0xc0>
20000b08:	bb69                	j	200008a2 <FLASH_EEPROM_CMD+0xe6>
20000b0a:	4791                	li	a5,4
20000b0c:	00f99963          	bne	s3,a5,20000b1e <.loop402+0x164>
20000b10:	06600513          	li	a0,102
20000b14:	36f5                	jal	20000700 <FLASH_ROM_BEG>
20000b16:	3ef5                	jal	20000712 <FLASH_ROM_END>
20000b18:	09900513          	li	a0,153
20000b1c:	b70d                	j	20000a3e <.loop402+0x84>
20000b1e:	d4098fe3          	beqz	s3,2000087c <FLASH_EEPROM_CMD+0xc0>
20000b22:	54f1                	li	s1,-4
20000b24:	bba9                	j	2000087e <FLASH_EEPROM_CMD+0xc2>
	...

Disassembly of section .text:

00000b2c <handle_reset>:
handle_reset():
C:/Users/Astap/Desktop/CH583EVT/EVT/EXAM/SRC/Startup/startup_CH583.S:129
	.weak	handle_reset
	.align	1
handle_reset:
.option push 
.option	norelax 
	la gp, __global_pointer$
     b2c:	20001197          	auipc	gp,0x20001
     b30:	85c18193          	addi	gp,gp,-1956 # 20001388 <__global_pointer$>
C:/Users/Astap/Desktop/CH583EVT/EVT/EXAM/SRC/Startup/startup_CH583.S:132
.option	pop 
1:
	la sp, _eusrstack 
     b34:	20007117          	auipc	sp,0x20007
     b38:	4cc10113          	addi	sp,sp,1228 # 20008000 <_eusrstack>
C:/Users/Astap/Desktop/CH583EVT/EVT/EXAM/SRC/Startup/startup_CH583.S:136

/* Load highcode code  section from flash to RAM */
2:
    la a0, _highcode_lma
     b3c:	00400513          	li	a0,4
C:/Users/Astap/Desktop/CH583EVT/EVT/EXAM/SRC/Startup/startup_CH583.S:137
    la a1, _highcode_vma_start
     b40:	1ffff597          	auipc	a1,0x1ffff
     b44:	4c058593          	addi	a1,a1,1216 # 20000000 <_highcode_vma_start>
C:/Users/Astap/Desktop/CH583EVT/EVT/EXAM/SRC/Startup/startup_CH583.S:138
    la a2, _highcode_vma_end
     b48:	20000617          	auipc	a2,0x20000
     b4c:	fe060613          	addi	a2,a2,-32 # 20000b28 <_highcode_vma_end>
C:/Users/Astap/Desktop/CH583EVT/EVT/EXAM/SRC/Startup/startup_CH583.S:139
    bgeu a1, a2, 2f
     b50:	00c5fa63          	bgeu	a1,a2,b64 <handle_reset+0x38>
C:/Users/Astap/Desktop/CH583EVT/EVT/EXAM/SRC/Startup/startup_CH583.S:141
1:
    lw t0, (a0)
     b54:	00052283          	lw	t0,0(a0)
C:/Users/Astap/Desktop/CH583EVT/EVT/EXAM/SRC/Startup/startup_CH583.S:142
    sw t0, (a1)
     b58:	0055a023          	sw	t0,0(a1)
C:/Users/Astap/Desktop/CH583EVT/EVT/EXAM/SRC/Startup/startup_CH583.S:143
    addi a0, a0, 4
     b5c:	0511                	addi	a0,a0,4
C:/Users/Astap/Desktop/CH583EVT/EVT/EXAM/SRC/Startup/startup_CH583.S:144
    addi a1, a1, 4
     b5e:	0591                	addi	a1,a1,4
C:/Users/Astap/Desktop/CH583EVT/EVT/EXAM/SRC/Startup/startup_CH583.S:145
    bltu a1, a2, 1b
     b60:	fec5eae3          	bltu	a1,a2,b54 <handle_reset+0x28>
C:/Users/Astap/Desktop/CH583EVT/EVT/EXAM/SRC/Startup/startup_CH583.S:149

/* Load data section from flash to RAM */
2:
	la a0, _data_lma
     b64:	00001517          	auipc	a0,0x1
     b68:	62c50513          	addi	a0,a0,1580 # 2190 <_data_lma>
C:/Users/Astap/Desktop/CH583EVT/EVT/EXAM/SRC/Startup/startup_CH583.S:150
	la a1, _data_vma
     b6c:	20000597          	auipc	a1,0x20000
     b70:	fbc58593          	addi	a1,a1,-68 # 20000b28 <_highcode_vma_end>
C:/Users/Astap/Desktop/CH583EVT/EVT/EXAM/SRC/Startup/startup_CH583.S:151
	la a2, _edata
     b74:	80818613          	addi	a2,gp,-2040 # 20000b90 <_edata>
C:/Users/Astap/Desktop/CH583EVT/EVT/EXAM/SRC/Startup/startup_CH583.S:152
	bgeu a1, a2, 2f
     b78:	00c5fa63          	bgeu	a1,a2,b8c <handle_reset+0x60>
C:/Users/Astap/Desktop/CH583EVT/EVT/EXAM/SRC/Startup/startup_CH583.S:154
1:
	lw t0, (a0)
     b7c:	00052283          	lw	t0,0(a0)
C:/Users/Astap/Desktop/CH583EVT/EVT/EXAM/SRC/Startup/startup_CH583.S:155
	sw t0, (a1)
     b80:	0055a023          	sw	t0,0(a1)
C:/Users/Astap/Desktop/CH583EVT/EVT/EXAM/SRC/Startup/startup_CH583.S:156
	addi a0, a0, 4
     b84:	0511                	addi	a0,a0,4
C:/Users/Astap/Desktop/CH583EVT/EVT/EXAM/SRC/Startup/startup_CH583.S:157
	addi a1, a1, 4
     b86:	0591                	addi	a1,a1,4
C:/Users/Astap/Desktop/CH583EVT/EVT/EXAM/SRC/Startup/startup_CH583.S:158
	bltu a1, a2, 1b
     b88:	fec5eae3          	bltu	a1,a2,b7c <handle_reset+0x50>
C:/Users/Astap/Desktop/CH583EVT/EVT/EXAM/SRC/Startup/startup_CH583.S:161
2:
	/* clear bss section */
	la a0, _sbss
     b8c:	80818513          	addi	a0,gp,-2040 # 20000b90 <_edata>
C:/Users/Astap/Desktop/CH583EVT/EVT/EXAM/SRC/Startup/startup_CH583.S:162
	la a1, _ebss
     b90:	83c18593          	addi	a1,gp,-1988 # 20000bc4 <_ebss>
C:/Users/Astap/Desktop/CH583EVT/EVT/EXAM/SRC/Startup/startup_CH583.S:163
	bgeu a0, a1, 2f
     b94:	00b57763          	bgeu	a0,a1,ba2 <handle_reset+0x76>
C:/Users/Astap/Desktop/CH583EVT/EVT/EXAM/SRC/Startup/startup_CH583.S:165
1:
	sw zero, (a0)
     b98:	00052023          	sw	zero,0(a0)
C:/Users/Astap/Desktop/CH583EVT/EVT/EXAM/SRC/Startup/startup_CH583.S:166
	addi a0, a0, 4
     b9c:	0511                	addi	a0,a0,4
C:/Users/Astap/Desktop/CH583EVT/EVT/EXAM/SRC/Startup/startup_CH583.S:167
	bltu a0, a1, 1b
     b9e:	feb56de3          	bltu	a0,a1,b98 <handle_reset+0x6c>
C:/Users/Astap/Desktop/CH583EVT/EVT/EXAM/SRC/Startup/startup_CH583.S:170
2:
	/* 流水线控制位 & 动态预测控制位 */
	li t0, 0x1f
     ba2:	42fd                	li	t0,31
C:/Users/Astap/Desktop/CH583EVT/EVT/EXAM/SRC/Startup/startup_CH583.S:171
	csrw 0xbc0, t0
     ba4:	bc029073          	csrw	0xbc0,t0
C:/Users/Astap/Desktop/CH583EVT/EVT/EXAM/SRC/Startup/startup_CH583.S:173
	/* 打开嵌套中断、硬件压栈功能 */
	li t0, 0x3
     ba8:	428d                	li	t0,3
C:/Users/Astap/Desktop/CH583EVT/EVT/EXAM/SRC/Startup/startup_CH583.S:174
	csrw 0x804, t0
     baa:	80429073          	csrw	0x804,t0
C:/Users/Astap/Desktop/CH583EVT/EVT/EXAM/SRC/Startup/startup_CH583.S:176
	
    li t0, 0x88
     bae:	08800293          	li	t0,136
C:/Users/Astap/Desktop/CH583EVT/EVT/EXAM/SRC/Startup/startup_CH583.S:177
    csrw mstatus, t0
     bb2:	30029073          	csrw	mstatus,t0
C:/Users/Astap/Desktop/CH583EVT/EVT/EXAM/SRC/Startup/startup_CH583.S:178
	la t0, _vector_base
     bb6:	1ffff297          	auipc	t0,0x1ffff
     bba:	44a28293          	addi	t0,t0,1098 # 20000000 <_highcode_vma_start>
C:/Users/Astap/Desktop/CH583EVT/EVT/EXAM/SRC/Startup/startup_CH583.S:181

	/* 配置向量表模式为绝对地址模式 */
    ori t0, t0, 3
     bbe:	0032e293          	ori	t0,t0,3
C:/Users/Astap/Desktop/CH583EVT/EVT/EXAM/SRC/Startup/startup_CH583.S:182
	csrw mtvec, t0
     bc2:	30529073          	csrw	mtvec,t0
C:/Users/Astap/Desktop/CH583EVT/EVT/EXAM/SRC/Startup/startup_CH583.S:184

	la t0, main
     bc6:	00001297          	auipc	t0,0x1
     bca:	84828293          	addi	t0,t0,-1976 # 140e <main>
C:/Users/Astap/Desktop/CH583EVT/EVT/EXAM/SRC/Startup/startup_CH583.S:185
	csrw mepc, t0
     bce:	34129073          	csrw	mepc,t0
C:/Users/Astap/Desktop/CH583EVT/EVT/EXAM/SRC/Startup/startup_CH583.S:188
	
	
	mret
     bd2:	30200073          	mret

00000bd6 <memset>:
memset():
     bd6:	433d                	li	t1,15
     bd8:	872a                	mv	a4,a0
     bda:	02c37363          	bgeu	t1,a2,c00 <memset+0x2a>
     bde:	00f77793          	andi	a5,a4,15
     be2:	efbd                	bnez	a5,c60 <memset+0x8a>
     be4:	e5ad                	bnez	a1,c4e <memset+0x78>
     be6:	ff067693          	andi	a3,a2,-16
     bea:	8a3d                	andi	a2,a2,15
     bec:	96ba                	add	a3,a3,a4
     bee:	c30c                	sw	a1,0(a4)
     bf0:	c34c                	sw	a1,4(a4)
     bf2:	c70c                	sw	a1,8(a4)
     bf4:	c74c                	sw	a1,12(a4)
     bf6:	0741                	addi	a4,a4,16
     bf8:	fed76be3          	bltu	a4,a3,bee <memset+0x18>
     bfc:	e211                	bnez	a2,c00 <memset+0x2a>
     bfe:	8082                	ret
     c00:	40c306b3          	sub	a3,t1,a2
     c04:	068a                	slli	a3,a3,0x2
     c06:	00000297          	auipc	t0,0x0
     c0a:	9696                	add	a3,a3,t0
     c0c:	00a68067          	jr	10(a3) # 10000a <_data_lma+0xfde7a>
     c10:	00b70723          	sb	a1,14(a4) # 8000e <_data_lma+0x7de7e>
     c14:	00b706a3          	sb	a1,13(a4)
     c18:	00b70623          	sb	a1,12(a4)
     c1c:	00b705a3          	sb	a1,11(a4)
     c20:	00b70523          	sb	a1,10(a4)
     c24:	00b704a3          	sb	a1,9(a4)
     c28:	00b70423          	sb	a1,8(a4)
     c2c:	00b703a3          	sb	a1,7(a4)
     c30:	00b70323          	sb	a1,6(a4)
     c34:	00b702a3          	sb	a1,5(a4)
     c38:	00b70223          	sb	a1,4(a4)
     c3c:	00b701a3          	sb	a1,3(a4)
     c40:	00b70123          	sb	a1,2(a4)
     c44:	00b700a3          	sb	a1,1(a4)
     c48:	00b70023          	sb	a1,0(a4)
     c4c:	8082                	ret
     c4e:	0ff5f593          	andi	a1,a1,255
     c52:	00859693          	slli	a3,a1,0x8
     c56:	8dd5                	or	a1,a1,a3
     c58:	01059693          	slli	a3,a1,0x10
     c5c:	8dd5                	or	a1,a1,a3
     c5e:	b761                	j	be6 <memset+0x10>
     c60:	00279693          	slli	a3,a5,0x2
     c64:	00000297          	auipc	t0,0x0
     c68:	9696                	add	a3,a3,t0
     c6a:	8286                	mv	t0,ra
     c6c:	fa8680e7          	jalr	-88(a3)
     c70:	8096                	mv	ra,t0
     c72:	17c1                	addi	a5,a5,-16
     c74:	8f1d                	sub	a4,a4,a5
     c76:	963e                	add	a2,a2,a5
     c78:	f8c374e3          	bgeu	t1,a2,c00 <memset+0x2a>
     c7c:	b7a5                	j	be4 <memset+0xe>

00000c7e <GPIOA_ModeCfg>:
GPIOA_ModeCfg():
C:/Users/Astap/Desktop/CH583EVT/EVT/EXAM/SRC/StdPeriphDriver/CH58x_gpio.c:27
 *
 * @return  none
 */
void GPIOA_ModeCfg(uint32_t pin, GPIOModeTypeDef mode)
{
    switch(mode)
     c7e:	4791                	li	a5,4
     c80:	02b7ee63          	bltu	a5,a1,cbc <GPIOA_ModeCfg+0x3e>
     c84:	00001717          	auipc	a4,0x1
     c88:	3c870713          	addi	a4,a4,968 # 204c <_read+0xc>
     c8c:	058a                	slli	a1,a1,0x2
     c8e:	95ba                	add	a1,a1,a4
     c90:	419c                	lw	a5,0(a1)
     c92:	97ba                	add	a5,a5,a4
     c94:	8782                	jr	a5
C:/Users/Astap/Desktop/CH583EVT/EVT/EXAM/SRC/StdPeriphDriver/CH58x_gpio.c:30
    {
        case GPIO_ModeIN_Floating:
            R32_PA_PD_DRV &= ~pin;
     c96:	400017b7          	lui	a5,0x40001
     c9a:	0b47a703          	lw	a4,180(a5) # 400010b4 <_eusrstack+0x1fff90b4>
     c9e:	fff54513          	not	a0,a0
     ca2:	8f69                	and	a4,a4,a0
     ca4:	0ae7aa23          	sw	a4,180(a5)
C:/Users/Astap/Desktop/CH583EVT/EVT/EXAM/SRC/StdPeriphDriver/CH58x_gpio.c:31
            R32_PA_PU &= ~pin;
     ca8:	0b07a703          	lw	a4,176(a5)
C:/Users/Astap/Desktop/CH583EVT/EVT/EXAM/SRC/StdPeriphDriver/CH58x_gpio.c:43
            R32_PA_DIR &= ~pin;
            break;

        case GPIO_ModeIN_PD:
            R32_PA_PD_DRV |= pin;
            R32_PA_PU &= ~pin;
     cac:	8f69                	and	a4,a4,a0
     cae:	0ae7a823          	sw	a4,176(a5)
C:/Users/Astap/Desktop/CH583EVT/EVT/EXAM/SRC/StdPeriphDriver/CH58x_gpio.c:44
            R32_PA_DIR &= ~pin;
     cb2:	0a07a703          	lw	a4,160(a5)
     cb6:	8d79                	and	a0,a0,a4
C:/Users/Astap/Desktop/CH583EVT/EVT/EXAM/SRC/StdPeriphDriver/CH58x_gpio.c:54
            R32_PA_DIR |= pin;
            break;

        case GPIO_ModeOut_PP_20mA:
            R32_PA_PD_DRV |= pin;
            R32_PA_DIR |= pin;
     cb8:	0aa7a023          	sw	a0,160(a5)
C:/Users/Astap/Desktop/CH583EVT/EVT/EXAM/SRC/StdPeriphDriver/CH58x_gpio.c:60
            break;

        default:
            break;
    }
}
     cbc:	8082                	ret
C:/Users/Astap/Desktop/CH583EVT/EVT/EXAM/SRC/StdPeriphDriver/CH58x_gpio.c:36
            R32_PA_PD_DRV &= ~pin;
     cbe:	400017b7          	lui	a5,0x40001
     cc2:	0b47a683          	lw	a3,180(a5) # 400010b4 <_eusrstack+0x1fff90b4>
     cc6:	fff54713          	not	a4,a0
     cca:	8ef9                	and	a3,a3,a4
     ccc:	0ad7aa23          	sw	a3,180(a5)
C:/Users/Astap/Desktop/CH583EVT/EVT/EXAM/SRC/StdPeriphDriver/CH58x_gpio.c:37
            R32_PA_PU |= pin;
     cd0:	0b07a683          	lw	a3,176(a5)
     cd4:	8d55                	or	a0,a0,a3
     cd6:	0aa7a823          	sw	a0,176(a5)
C:/Users/Astap/Desktop/CH583EVT/EVT/EXAM/SRC/StdPeriphDriver/CH58x_gpio.c:38
            R32_PA_DIR &= ~pin;
     cda:	0a07a683          	lw	a3,160(a5)
     cde:	8f75                	and	a4,a4,a3
     ce0:	0ae7a023          	sw	a4,160(a5)
C:/Users/Astap/Desktop/CH583EVT/EVT/EXAM/SRC/StdPeriphDriver/CH58x_gpio.c:39
            break;
     ce4:	8082                	ret
C:/Users/Astap/Desktop/CH583EVT/EVT/EXAM/SRC/StdPeriphDriver/CH58x_gpio.c:42
            R32_PA_PD_DRV |= pin;
     ce6:	400017b7          	lui	a5,0x40001
     cea:	0b47a703          	lw	a4,180(a5) # 400010b4 <_eusrstack+0x1fff90b4>
     cee:	8f49                	or	a4,a4,a0
     cf0:	0ae7aa23          	sw	a4,180(a5)
C:/Users/Astap/Desktop/CH583EVT/EVT/EXAM/SRC/StdPeriphDriver/CH58x_gpio.c:43
            R32_PA_PU &= ~pin;
     cf4:	0b07a703          	lw	a4,176(a5)
     cf8:	fff54513          	not	a0,a0
     cfc:	bf45                	j	cac <GPIOA_ModeCfg+0x2e>
C:/Users/Astap/Desktop/CH583EVT/EVT/EXAM/SRC/StdPeriphDriver/CH58x_gpio.c:48
            R32_PA_PD_DRV &= ~pin;
     cfe:	400017b7          	lui	a5,0x40001
     d02:	0b47a683          	lw	a3,180(a5) # 400010b4 <_eusrstack+0x1fff90b4>
     d06:	fff54713          	not	a4,a0
     d0a:	8f75                	and	a4,a4,a3
C:/Users/Astap/Desktop/CH583EVT/EVT/EXAM/SRC/StdPeriphDriver/CH58x_gpio.c:53
            R32_PA_PD_DRV |= pin;
     d0c:	0ae7aa23          	sw	a4,180(a5)
C:/Users/Astap/Desktop/CH583EVT/EVT/EXAM/SRC/StdPeriphDriver/CH58x_gpio.c:54
            R32_PA_DIR |= pin;
     d10:	0a07a703          	lw	a4,160(a5)
     d14:	8d59                	or	a0,a0,a4
     d16:	b74d                	j	cb8 <GPIOA_ModeCfg+0x3a>
C:/Users/Astap/Desktop/CH583EVT/EVT/EXAM/SRC/StdPeriphDriver/CH58x_gpio.c:53
            R32_PA_PD_DRV |= pin;
     d18:	400017b7          	lui	a5,0x40001
     d1c:	0b47a703          	lw	a4,180(a5) # 400010b4 <_eusrstack+0x1fff90b4>
     d20:	8f49                	or	a4,a4,a0
     d22:	b7ed                	j	d0c <GPIOA_ModeCfg+0x8e>

00000d24 <GPIOB_ModeCfg>:
GPIOB_ModeCfg():
C:/Users/Astap/Desktop/CH583EVT/EVT/EXAM/SRC/StdPeriphDriver/CH58x_gpio.c:74
 *
 * @return  none
 */
void GPIOB_ModeCfg(uint32_t pin, GPIOModeTypeDef mode)
{
    switch(mode)
     d24:	4791                	li	a5,4
     d26:	02b7ee63          	bltu	a5,a1,d62 <GPIOB_ModeCfg+0x3e>
     d2a:	00001717          	auipc	a4,0x1
     d2e:	33670713          	addi	a4,a4,822 # 2060 <_read+0x20>
     d32:	058a                	slli	a1,a1,0x2
     d34:	95ba                	add	a1,a1,a4
     d36:	419c                	lw	a5,0(a1)
     d38:	97ba                	add	a5,a5,a4
     d3a:	8782                	jr	a5
C:/Users/Astap/Desktop/CH583EVT/EVT/EXAM/SRC/StdPeriphDriver/CH58x_gpio.c:77
    {
        case GPIO_ModeIN_Floating:
            R32_PB_PD_DRV &= ~pin;
     d3c:	400017b7          	lui	a5,0x40001
     d40:	0d47a703          	lw	a4,212(a5) # 400010d4 <_eusrstack+0x1fff90d4>
     d44:	fff54513          	not	a0,a0
     d48:	8f69                	and	a4,a4,a0
     d4a:	0ce7aa23          	sw	a4,212(a5)
C:/Users/Astap/Desktop/CH583EVT/EVT/EXAM/SRC/StdPeriphDriver/CH58x_gpio.c:78
            R32_PB_PU &= ~pin;
     d4e:	0d07a703          	lw	a4,208(a5)
C:/Users/Astap/Desktop/CH583EVT/EVT/EXAM/SRC/StdPeriphDriver/CH58x_gpio.c:90
            R32_PB_DIR &= ~pin;
            break;

        case GPIO_ModeIN_PD:
            R32_PB_PD_DRV |= pin;
            R32_PB_PU &= ~pin;
     d52:	8f69                	and	a4,a4,a0
     d54:	0ce7a823          	sw	a4,208(a5)
C:/Users/Astap/Desktop/CH583EVT/EVT/EXAM/SRC/StdPeriphDriver/CH58x_gpio.c:91
            R32_PB_DIR &= ~pin;
     d58:	0c07a703          	lw	a4,192(a5)
     d5c:	8d79                	and	a0,a0,a4
C:/Users/Astap/Desktop/CH583EVT/EVT/EXAM/SRC/StdPeriphDriver/CH58x_gpio.c:101
            R32_PB_DIR |= pin;
            break;

        case GPIO_ModeOut_PP_20mA:
            R32_PB_PD_DRV |= pin;
            R32_PB_DIR |= pin;
     d5e:	0ca7a023          	sw	a0,192(a5)
C:/Users/Astap/Desktop/CH583EVT/EVT/EXAM/SRC/StdPeriphDriver/CH58x_gpio.c:107
            break;

        default:
            break;
    }
}
     d62:	8082                	ret
C:/Users/Astap/Desktop/CH583EVT/EVT/EXAM/SRC/StdPeriphDriver/CH58x_gpio.c:83
            R32_PB_PD_DRV &= ~pin;
     d64:	400017b7          	lui	a5,0x40001
     d68:	0d47a683          	lw	a3,212(a5) # 400010d4 <_eusrstack+0x1fff90d4>
     d6c:	fff54713          	not	a4,a0
     d70:	8ef9                	and	a3,a3,a4
     d72:	0cd7aa23          	sw	a3,212(a5)
C:/Users/Astap/Desktop/CH583EVT/EVT/EXAM/SRC/StdPeriphDriver/CH58x_gpio.c:84
            R32_PB_PU |= pin;
     d76:	0d07a683          	lw	a3,208(a5)
     d7a:	8d55                	or	a0,a0,a3
     d7c:	0ca7a823          	sw	a0,208(a5)
C:/Users/Astap/Desktop/CH583EVT/EVT/EXAM/SRC/StdPeriphDriver/CH58x_gpio.c:85
            R32_PB_DIR &= ~pin;
     d80:	0c07a683          	lw	a3,192(a5)
     d84:	8f75                	and	a4,a4,a3
     d86:	0ce7a023          	sw	a4,192(a5)
C:/Users/Astap/Desktop/CH583EVT/EVT/EXAM/SRC/StdPeriphDriver/CH58x_gpio.c:86
            break;
     d8a:	8082                	ret
C:/Users/Astap/Desktop/CH583EVT/EVT/EXAM/SRC/StdPeriphDriver/CH58x_gpio.c:89
            R32_PB_PD_DRV |= pin;
     d8c:	400017b7          	lui	a5,0x40001
     d90:	0d47a703          	lw	a4,212(a5) # 400010d4 <_eusrstack+0x1fff90d4>
     d94:	8f49                	or	a4,a4,a0
     d96:	0ce7aa23          	sw	a4,212(a5)
C:/Users/Astap/Desktop/CH583EVT/EVT/EXAM/SRC/StdPeriphDriver/CH58x_gpio.c:90
            R32_PB_PU &= ~pin;
     d9a:	0d07a703          	lw	a4,208(a5)
     d9e:	fff54513          	not	a0,a0
     da2:	bf45                	j	d52 <GPIOB_ModeCfg+0x2e>
C:/Users/Astap/Desktop/CH583EVT/EVT/EXAM/SRC/StdPeriphDriver/CH58x_gpio.c:95
            R32_PB_PD_DRV &= ~pin;
     da4:	400017b7          	lui	a5,0x40001
     da8:	0d47a683          	lw	a3,212(a5) # 400010d4 <_eusrstack+0x1fff90d4>
     dac:	fff54713          	not	a4,a0
     db0:	8f75                	and	a4,a4,a3
C:/Users/Astap/Desktop/CH583EVT/EVT/EXAM/SRC/StdPeriphDriver/CH58x_gpio.c:100
            R32_PB_PD_DRV |= pin;
     db2:	0ce7aa23          	sw	a4,212(a5)
C:/Users/Astap/Desktop/CH583EVT/EVT/EXAM/SRC/StdPeriphDriver/CH58x_gpio.c:101
            R32_PB_DIR |= pin;
     db6:	0c07a703          	lw	a4,192(a5)
     dba:	8d59                	or	a0,a0,a4
     dbc:	b74d                	j	d5e <GPIOB_ModeCfg+0x3a>
C:/Users/Astap/Desktop/CH583EVT/EVT/EXAM/SRC/StdPeriphDriver/CH58x_gpio.c:100
            R32_PB_PD_DRV |= pin;
     dbe:	400017b7          	lui	a5,0x40001
     dc2:	0d47a703          	lw	a4,212(a5) # 400010d4 <_eusrstack+0x1fff90d4>
     dc6:	8f49                	or	a4,a4,a0
     dc8:	b7ed                	j	db2 <GPIOB_ModeCfg+0x8e>

00000dca <GPIOPinRemap>:
GPIOPinRemap():
C:/Users/Astap/Desktop/CH583EVT/EVT/EXAM/SRC/StdPeriphDriver/CH58x_gpio.c:220
 */
void GPIOPinRemap(FunctionalState s, uint16_t perph)
{
    if(s)
    {
        R16_PIN_ALTERNATE |= perph;
     dca:	400017b7          	lui	a5,0x40001
     dce:	0187d703          	lhu	a4,24(a5) # 40001018 <_eusrstack+0x1fff9018>
C:/Users/Astap/Desktop/CH583EVT/EVT/EXAM/SRC/StdPeriphDriver/CH58x_gpio.c:218
    if(s)
     dd2:	c509                	beqz	a0,ddc <GPIOPinRemap+0x12>
C:/Users/Astap/Desktop/CH583EVT/EVT/EXAM/SRC/StdPeriphDriver/CH58x_gpio.c:220
        R16_PIN_ALTERNATE |= perph;
     dd4:	8dd9                	or	a1,a1,a4
C:/Users/Astap/Desktop/CH583EVT/EVT/EXAM/SRC/StdPeriphDriver/CH58x_gpio.c:224
    }
    else
    {
        R16_PIN_ALTERNATE &= ~perph;
     dd6:	00b79c23          	sh	a1,24(a5)
C:/Users/Astap/Desktop/CH583EVT/EVT/EXAM/SRC/StdPeriphDriver/CH58x_gpio.c:226
    }
}
     dda:	8082                	ret
C:/Users/Astap/Desktop/CH583EVT/EVT/EXAM/SRC/StdPeriphDriver/CH58x_gpio.c:224
        R16_PIN_ALTERNATE &= ~perph;
     ddc:	fff5c593          	not	a1,a1
     de0:	8df9                	and	a1,a1,a4
     de2:	bfd5                	j	dd6 <GPIOPinRemap+0xc>

00000de4 <GetSysClock>:
GetSysClock():
C:/Users/Astap/Desktop/CH583EVT/EVT/EXAM/SRC/StdPeriphDriver/CH58x_sys.c:117
    rev = R16_CLK_SYS_CFG & 0xff;
     de4:	400017b7          	lui	a5,0x40001
     de8:	0087d503          	lhu	a0,8(a5) # 40001008 <_eusrstack+0x1fff9008>
     dec:	0542                	slli	a0,a0,0x10
     dee:	8141                	srli	a0,a0,0x10
C:/Users/Astap/Desktop/CH583EVT/EVT/EXAM/SRC/StdPeriphDriver/CH58x_sys.c:118
    if((rev & 0x40) == (0 << 6))
     df0:	04057793          	andi	a5,a0,64
     df4:	eb91                	bnez	a5,e08 <GetSysClock+0x24>
C:/Users/Astap/Desktop/CH583EVT/EVT/EXAM/SRC/StdPeriphDriver/CH58x_sys.c:120
        return (32000000 / (rev & 0x1f));
     df6:	01f57793          	andi	a5,a0,31
     dfa:	01e85537          	lui	a0,0x1e85
C:/Users/Astap/Desktop/CH583EVT/EVT/EXAM/SRC/StdPeriphDriver/CH58x_sys.c:124
        return (480000000 / (rev & 0x1f));
     dfe:	80050513          	addi	a0,a0,-2048 # 1e84800 <_data_lma+0x1e82670>
     e02:	02f54533          	div	a0,a0,a5
     e06:	8082                	ret
C:/Users/Astap/Desktop/CH583EVT/EVT/EXAM/SRC/StdPeriphDriver/CH58x_sys.c:122
    else if((rev & RB_CLK_SYS_MOD) == (1 << 6))
     e08:	0c057793          	andi	a5,a0,192
     e0c:	04000713          	li	a4,64
     e10:	00e79763          	bne	a5,a4,e1e <GetSysClock+0x3a>
C:/Users/Astap/Desktop/CH583EVT/EVT/EXAM/SRC/StdPeriphDriver/CH58x_sys.c:124
        return (480000000 / (rev & 0x1f));
     e14:	01f57793          	andi	a5,a0,31
     e18:	1c9c4537          	lui	a0,0x1c9c4
     e1c:	b7cd                	j	dfe <GetSysClock+0x1a>
C:/Users/Astap/Desktop/CH583EVT/EVT/EXAM/SRC/StdPeriphDriver/CH58x_sys.c:128
        return (32000);
     e1e:	6521                	lui	a0,0x8
     e20:	d0050513          	addi	a0,a0,-768 # 7d00 <_data_lma+0x5b70>
C:/Users/Astap/Desktop/CH583EVT/EVT/EXAM/SRC/StdPeriphDriver/CH58x_sys.c:130
}
     e24:	8082                	ret

00000e26 <_write>:
_write():
C:/Users/Astap/Desktop/CH583EVT/EVT/EXAM/SRC/StdPeriphDriver/CH58x_sys.c:381

#ifdef DEBUG
int _write(int fd, char *buf, int size)
{
    int i;
    for(i = 0; i < size; i++)
     e26:	4781                	li	a5,0
C:/Users/Astap/Desktop/CH583EVT/EVT/EXAM/SRC/StdPeriphDriver/CH58x_sys.c:384
    {
#if DEBUG == Debug_UART0
        while(R8_UART0_TFC == UART_FIFO_SIZE);                  /* 等待数据发送 */
     e28:	40003737          	lui	a4,0x40003
     e2c:	46a1                	li	a3,8
C:/Users/Astap/Desktop/CH583EVT/EVT/EXAM/SRC/StdPeriphDriver/CH58x_sys.c:381 (discriminator 1)
    for(i = 0; i < size; i++)
     e2e:	00c7c463          	blt	a5,a2,e36 <_write+0x10>
C:/Users/Astap/Desktop/CH583EVT/EVT/EXAM/SRC/StdPeriphDriver/CH58x_sys.c:398
        while(R8_UART3_TFC == UART_FIFO_SIZE);                  /* 等待数据发送 */
        R8_UART3_THR = *buf++; /* 发送数据 */
#endif
    }
    return size;
}
     e32:	8532                	mv	a0,a2
     e34:	8082                	ret
C:/Users/Astap/Desktop/CH583EVT/EVT/EXAM/SRC/StdPeriphDriver/CH58x_sys.c:384 (discriminator 1)
        while(R8_UART0_TFC == UART_FIFO_SIZE);                  /* 等待数据发送 */
     e36:	00b74503          	lbu	a0,11(a4) # 4000300b <_eusrstack+0x1fffb00b>
     e3a:	fea68ee3          	beq	a3,a0,e36 <_write+0x10>
C:/Users/Astap/Desktop/CH583EVT/EVT/EXAM/SRC/StdPeriphDriver/CH58x_sys.c:385 (discriminator 2)
        R8_UART0_THR = *buf++; /* 发送数据 */
     e3e:	00f58533          	add	a0,a1,a5
     e42:	00054503          	lbu	a0,0(a0)
C:/Users/Astap/Desktop/CH583EVT/EVT/EXAM/SRC/StdPeriphDriver/CH58x_sys.c:381 (discriminator 2)
    for(i = 0; i < size; i++)
     e46:	0785                	addi	a5,a5,1
C:/Users/Astap/Desktop/CH583EVT/EVT/EXAM/SRC/StdPeriphDriver/CH58x_sys.c:385 (discriminator 2)
        R8_UART0_THR = *buf++; /* 发送数据 */
     e48:	00a70423          	sb	a0,8(a4)
     e4c:	b7cd                	j	e2e <_write+0x8>

00000e4e <_sbrk>:
_sbrk():
C:/Users/Astap/Desktop/CH583EVT/EVT/EXAM/SRC/StdPeriphDriver/CH58x_sys.c:416
{
    extern char _end[];
    extern char _heap_end[];
    static char *curbrk = _end;

    if ((curbrk + incr < _end) || (curbrk + incr > _heap_end))
     e4e:	20000797          	auipc	a5,0x20000
     e52:	d3a78793          	addi	a5,a5,-710 # 20000b88 <curbrk.4072>
     e56:	439c                	lw	a5,0(a5)
     e58:	83c18713          	addi	a4,gp,-1988 # 20000bc4 <_ebss>
     e5c:	953e                	add	a0,a0,a5
     e5e:	00e56e63          	bltu	a0,a4,e7a <_sbrk+0x2c>
C:/Users/Astap/Desktop/CH583EVT/EVT/EXAM/SRC/StdPeriphDriver/CH58x_sys.c:416 (discriminator 1)
     e62:	20007717          	auipc	a4,0x20007
     e66:	f9e70713          	addi	a4,a4,-98 # 20007e00 <_heap_end>
     e6a:	00a76863          	bltu	a4,a0,e7a <_sbrk+0x2c>
C:/Users/Astap/Desktop/CH583EVT/EVT/EXAM/SRC/StdPeriphDriver/CH58x_sys.c:419
    return NULL - 1;

    curbrk += incr;
     e6e:	20000717          	auipc	a4,0x20000
     e72:	d0a72d23          	sw	a0,-742(a4) # 20000b88 <curbrk.4072>
C:/Users/Astap/Desktop/CH583EVT/EVT/EXAM/SRC/StdPeriphDriver/CH58x_sys.c:421
    return curbrk - incr;
}
     e76:	853e                	mv	a0,a5
     e78:	8082                	ret
C:/Users/Astap/Desktop/CH583EVT/EVT/EXAM/SRC/StdPeriphDriver/CH58x_sys.c:417
    return NULL - 1;
     e7a:	57fd                	li	a5,-1
     e7c:	bfed                	j	e76 <_sbrk+0x28>

00000e7e <UART1_BaudRateCfg>:
UART1_BaudRateCfg():
C:/Users/Astap/Desktop/CH583EVT/EVT/EXAM/SRC/StdPeriphDriver/CH58x_uart1.c:47
 * @param   baudrate    - 波特率
 *
 * @return  none
 */
void UART1_BaudRateCfg(uint32_t baudrate)
{
     e7e:	1141                	addi	sp,sp,-16
     e80:	c422                	sw	s0,8(sp)
     e82:	c606                	sw	ra,12(sp)
     e84:	842a                	mv	s0,a0
C:/Users/Astap/Desktop/CH583EVT/EVT/EXAM/SRC/StdPeriphDriver/CH58x_uart1.c:50
    uint32_t x;

    x = 10 * GetSysClock() / 8 / baudrate;
     e86:	3fb9                	jal	de4 <GetSysClock>
     e88:	4729                	li	a4,10
     e8a:	02e507b3          	mul	a5,a0,a4
C:/Users/Astap/Desktop/CH583EVT/EVT/EXAM/SRC/StdPeriphDriver/CH58x_uart1.c:53
    x = (x + 5) / 10;
    R16_UART1_DL = (uint16_t)x;
}
     e8e:	40b2                	lw	ra,12(sp)
C:/Users/Astap/Desktop/CH583EVT/EVT/EXAM/SRC/StdPeriphDriver/CH58x_uart1.c:50
    x = 10 * GetSysClock() / 8 / baudrate;
     e90:	838d                	srli	a5,a5,0x3
     e92:	0287d7b3          	divu	a5,a5,s0
C:/Users/Astap/Desktop/CH583EVT/EVT/EXAM/SRC/StdPeriphDriver/CH58x_uart1.c:53
}
     e96:	4422                	lw	s0,8(sp)
C:/Users/Astap/Desktop/CH583EVT/EVT/EXAM/SRC/StdPeriphDriver/CH58x_uart1.c:51
    x = (x + 5) / 10;
     e98:	0795                	addi	a5,a5,5
     e9a:	02e7d7b3          	divu	a5,a5,a4
C:/Users/Astap/Desktop/CH583EVT/EVT/EXAM/SRC/StdPeriphDriver/CH58x_uart1.c:52
    R16_UART1_DL = (uint16_t)x;
     e9e:	40003737          	lui	a4,0x40003
     ea2:	07c2                	slli	a5,a5,0x10
     ea4:	83c1                	srli	a5,a5,0x10
     ea6:	40f71623          	sh	a5,1036(a4) # 4000340c <_eusrstack+0x1fffb40c>
C:/Users/Astap/Desktop/CH583EVT/EVT/EXAM/SRC/StdPeriphDriver/CH58x_uart1.c:53
}
     eaa:	0141                	addi	sp,sp,16
     eac:	8082                	ret

00000eae <UART1_DefInit>:
UART1_DefInit():
C:/Users/Astap/Desktop/CH583EVT/EVT/EXAM/SRC/StdPeriphDriver/CH58x_uart1.c:26
    UART1_BaudRateCfg(115200);
     eae:	6571                	lui	a0,0x1c
C:/Users/Astap/Desktop/CH583EVT/EVT/EXAM/SRC/StdPeriphDriver/CH58x_uart1.c:25
{
     eb0:	1141                	addi	sp,sp,-16
C:/Users/Astap/Desktop/CH583EVT/EVT/EXAM/SRC/StdPeriphDriver/CH58x_uart1.c:26
    UART1_BaudRateCfg(115200);
     eb2:	20050513          	addi	a0,a0,512 # 1c200 <_data_lma+0x1a070>
C:/Users/Astap/Desktop/CH583EVT/EVT/EXAM/SRC/StdPeriphDriver/CH58x_uart1.c:25
{
     eb6:	c606                	sw	ra,12(sp)
C:/Users/Astap/Desktop/CH583EVT/EVT/EXAM/SRC/StdPeriphDriver/CH58x_uart1.c:26
    UART1_BaudRateCfg(115200);
     eb8:	37d9                	jal	e7e <UART1_BaudRateCfg>
C:/Users/Astap/Desktop/CH583EVT/EVT/EXAM/SRC/StdPeriphDriver/CH58x_uart1.c:31
     R8_UART1_FCR = (2 << 6) | RB_FCR_TX_FIFO_CLR | RB_FCR_RX_FIFO_CLR | RB_FCR_FIFO_EN; // FIFO打开，触发点4字节
     eba:	400037b7          	lui	a5,0x40003
     ebe:	f8700713          	li	a4,-121
     ec2:	40e78123          	sb	a4,1026(a5) # 40003402 <_eusrstack+0x1fffb402>
C:/Users/Astap/Desktop/CH583EVT/EVT/EXAM/SRC/StdPeriphDriver/CH58x_uart1.c:32
     R8_UART1_LCR = RB_LCR_WORD_SZ;
     ec6:	470d                	li	a4,3
     ec8:	40e781a3          	sb	a4,1027(a5)
C:/Users/Astap/Desktop/CH583EVT/EVT/EXAM/SRC/StdPeriphDriver/CH58x_uart1.c:33
     R8_UART1_IER = RB_IER_TXD_EN;
     ecc:	04000713          	li	a4,64
     ed0:	40e780a3          	sb	a4,1025(a5)
C:/Users/Astap/Desktop/CH583EVT/EVT/EXAM/SRC/StdPeriphDriver/CH58x_uart1.c:34
     R8_UART1_DIV = 1;
     ed4:	4705                	li	a4,1
     ed6:	40e78723          	sb	a4,1038(a5)
C:/Users/Astap/Desktop/CH583EVT/EVT/EXAM/SRC/StdPeriphDriver/CH58x_uart1.c:35
 }
     eda:	40b2                	lw	ra,12(sp)
     edc:	0141                	addi	sp,sp,16
     ede:	8082                	ret

00000ee0 <DevEP2_OUT_Deal>:
DevEP2_OUT_Deal():
C:\Users\Astap\Desktop\CH583EVT\EVT\EXAM\BLE\Direct_Test_Mode\obj/../APP/app_usb.c:145
{ /* 用户可自定义 */
     ee0:	1101                	addi	sp,sp,-32
     ee2:	cc22                	sw	s0,24(sp)
     ee4:	ca26                	sw	s1,20(sp)
     ee6:	c84a                	sw	s2,16(sp)
     ee8:	c64e                	sw	s3,12(sp)
     eea:	ce06                	sw	ra,28(sp)
     eec:	84aa                	mv	s1,a0
C:\Users\Astap\Desktop\CH583EVT\EVT\EXAM\BLE\Direct_Test_Mode\obj/../APP/app_usb.c:148
    for(i = 0; i < l; i++)
     eee:	4401                	li	s0,0
C:\Users\Astap\Desktop\CH583EVT\EVT\EXAM\BLE\Direct_Test_Mode\obj/../APP/app_usb.c:150
        simple_buf_add_u8(usb_buf, pEP2_OUT_DataBuf[i]);
     ef0:	81018913          	addi	s2,gp,-2032 # 20000b98 <pEP2_RAM_Addr>
     ef4:	82818993          	addi	s3,gp,-2008 # 20000bb0 <usb_buf>
C:\Users\Astap\Desktop\CH583EVT\EVT\EXAM\BLE\Direct_Test_Mode\obj/../APP/app_usb.c:148 (discriminator 1)
    for(i = 0; i < l; i++)
     ef8:	02849063          	bne	s1,s0,f18 <DevEP2_OUT_Deal+0x38>
atomic_set():
C:\Users\Astap\Desktop\CH583EVT\EVT\EXAM\BLE\Direct_Test_Mode\APP\include/atomic_builtin.h:176
{
	/* This builtin, as described by Intel, is not a traditional
	 * test-and-set operation, but rather an atomic exchange operation. It
	 * writes value into *ptr, and returns the previous contents of *ptr.
	 */
	return __atomic_exchange_n(target, value, __ATOMIC_SEQ_CST);
     efc:	82c18713          	addi	a4,gp,-2004 # 20000bb4 <usb_flag>
     f00:	4689                	li	a3,2
     f02:	0f50000f          	fence	iorw,ow
     f06:	0cd726af          	amoswap.w.aq	a3,a3,(a4)
DevEP2_OUT_Deal():
C:\Users\Astap\Desktop\CH583EVT\EVT\EXAM\BLE\Direct_Test_Mode\obj/../APP/app_usb.c:153
}
     f0a:	40f2                	lw	ra,28(sp)
     f0c:	4462                	lw	s0,24(sp)
     f0e:	44d2                	lw	s1,20(sp)
     f10:	4942                	lw	s2,16(sp)
     f12:	49b2                	lw	s3,12(sp)
     f14:	6105                	addi	sp,sp,32
     f16:	8082                	ret
C:\Users\Astap\Desktop\CH583EVT\EVT\EXAM\BLE\Direct_Test_Mode\obj/../APP/app_usb.c:150 (discriminator 3)
        simple_buf_add_u8(usb_buf, pEP2_OUT_DataBuf[i]);
     f18:	00092783          	lw	a5,0(s2)
     f1c:	0009a503          	lw	a0,0(s3)
     f20:	97a2                	add	a5,a5,s0
     f22:	0007c583          	lbu	a1,0(a5)
     f26:	0405                	addi	s0,s0,1
     f28:	21f9                	jal	13f6 <simple_buf_add_u8>
     f2a:	b7f9                	j	ef8 <DevEP2_OUT_Deal+0x18>

00000f2c <USB_DevTransProcess>:
USB_DevTransProcess():
C:\Users\Astap\Desktop\CH583EVT\EVT\EXAM\BLE\Direct_Test_Mode\obj/../APP/app_usb.c:189
  intflag = R8_USB_INT_FG;
     f2c:	400087b7          	lui	a5,0x40008
     f30:	0067c703          	lbu	a4,6(a5) # 40008006 <_eusrstack+0x20000006>
     f34:	0ff77713          	andi	a4,a4,255
C:\Users\Astap\Desktop\CH583EVT\EVT\EXAM\BLE\Direct_Test_Mode\obj/../APP/app_usb.c:190
  if ( intflag & RB_UIF_TRANSFER )
     f38:	00277693          	andi	a3,a4,2
     f3c:	46068063          	beqz	a3,139c <USB_DevTransProcess+0x470>
C:\Users\Astap\Desktop\CH583EVT\EVT\EXAM\BLE\Direct_Test_Mode\obj/../APP/app_usb.c:185
{
     f40:	1101                	addi	sp,sp,-32
     f42:	ce06                	sw	ra,28(sp)
     f44:	cc22                	sw	s0,24(sp)
     f46:	ca26                	sw	s1,20(sp)
     f48:	c84a                	sw	s2,16(sp)
     f4a:	c64e                	sw	s3,12(sp)
C:\Users\Astap\Desktop\CH583EVT\EVT\EXAM\BLE\Direct_Test_Mode\obj/../APP/app_usb.c:192
    if ( ( R8_USB_INT_ST & MASK_UIS_TOKEN ) != MASK_UIS_TOKEN )    // 非空闲
     f4c:	0077c703          	lbu	a4,7(a5)
     f50:	03000693          	li	a3,48
     f54:	03077713          	andi	a4,a4,48
     f58:	02d70b63          	beq	a4,a3,f8e <USB_DevTransProcess+0x62>
C:\Users\Astap\Desktop\CH583EVT\EVT\EXAM\BLE\Direct_Test_Mode\obj/../APP/app_usb.c:194
      switch ( R8_USB_INT_ST & ( MASK_UIS_TOKEN | MASK_UIS_ENDP ) )
     f5c:	0077c703          	lbu	a4,7(a5)
     f60:	4691                	li	a3,4
     f62:	03f77713          	andi	a4,a4,63
     f66:	1ed70a63          	beq	a4,a3,115a <USB_DevTransProcess+0x22e>
     f6a:	0ce6e263          	bltu	a3,a4,102e <USB_DevTransProcess+0x102>
     f6e:	4685                	li	a3,1
     f70:	1cd70363          	beq	a4,a3,1136 <USB_DevTransProcess+0x20a>
     f74:	1c070763          	beqz	a4,1142 <USB_DevTransProcess+0x216>
     f78:	4689                	li	a3,2
     f7a:	18d70b63          	beq	a4,a3,1110 <USB_DevTransProcess+0x1e4>
     f7e:	468d                	li	a3,3
     f80:	1ad70b63          	beq	a4,a3,1136 <USB_DevTransProcess+0x20a>
C:\Users\Astap\Desktop\CH583EVT\EVT\EXAM\BLE\Direct_Test_Mode\obj/../APP/app_usb.c:289
      R8_USB_INT_FG = RB_UIF_TRANSFER;
     f84:	400087b7          	lui	a5,0x40008
     f88:	4709                	li	a4,2
     f8a:	00e78323          	sb	a4,6(a5) # 40008006 <_eusrstack+0x20000006>
C:\Users\Astap\Desktop\CH583EVT\EVT\EXAM\BLE\Direct_Test_Mode\obj/../APP/app_usb.c:291
    if ( R8_USB_INT_ST & RB_UIS_SETUP_ACT )                  // Setup包处理
     f8e:	40008737          	lui	a4,0x40008
     f92:	00774783          	lbu	a5,7(a4) # 40008007 <_eusrstack+0x20000007>
     f96:	07e2                	slli	a5,a5,0x18
     f98:	87e1                	srai	a5,a5,0x18
     f9a:	2c07db63          	bgez	a5,1270 <USB_DevTransProcess+0x344>
C:\Users\Astap\Desktop\CH583EVT\EVT\EXAM\BLE\Direct_Test_Mode\obj/../APP/app_usb.c:293
      R8_UEP0_CTRL = RB_UEP_R_TOG | RB_UEP_T_TOG | UEP_R_RES_ACK | UEP_T_RES_NAK;
     f9e:	fc200793          	li	a5,-62
     fa2:	02f70123          	sb	a5,34(a4)
C:\Users\Astap\Desktop\CH583EVT\EVT\EXAM\BLE\Direct_Test_Mode\obj/../APP/app_usb.c:294
      SetupReqLen = pSetupReqPak->wLength;
     fa6:	80c18693          	addi	a3,gp,-2036 # 20000b94 <pEP0_RAM_Addr>
     faa:	4288                	lw	a0,0(a3)
     fac:	00754703          	lbu	a4,7(a0)
     fb0:	00654783          	lbu	a5,6(a0)
     fb4:	0722                	slli	a4,a4,0x8
     fb6:	8f5d                	or	a4,a4,a5
     fb8:	80e19d23          	sh	a4,-2022(gp) # 20000ba2 <SetupReqLen>
C:\Users\Astap\Desktop\CH583EVT\EVT\EXAM\BLE\Direct_Test_Mode\obj/../APP/app_usb.c:295
      SetupReqCode = pSetupReqPak->bRequest;
     fbc:	00154783          	lbu	a5,1(a0)
     fc0:	80f18ca3          	sb	a5,-2023(gp) # 20000ba1 <SetupReqCode>
C:\Users\Astap\Desktop\CH583EVT\EVT\EXAM\BLE\Direct_Test_Mode\obj/../APP/app_usb.c:296
      chtype = pSetupReqPak->bRequestType;
     fc4:	00054483          	lbu	s1,0(a0)
C:\Users\Astap\Desktop\CH583EVT\EVT\EXAM\BLE\Direct_Test_Mode\obj/../APP/app_usb.c:300
      if ( ( pSetupReqPak->bRequestType & USB_REQ_TYP_MASK ) != USB_REQ_TYP_STANDARD )
     fc8:	0604f613          	andi	a2,s1,96
     fcc:	1e060363          	beqz	a2,11b2 <USB_DevTransProcess+0x286>
C:\Users\Astap\Desktop\CH583EVT\EVT\EXAM\BLE\Direct_Test_Mode\obj/../APP/app_usb.c:302
        if( pSetupReqPak->bRequestType == 0xC0 )
     fd0:	0c000713          	li	a4,192
     fd4:	32e49663          	bne	s1,a4,1300 <USB_DevTransProcess+0x3d4>
C:\Users\Astap\Desktop\CH583EVT\EVT\EXAM\BLE\Direct_Test_Mode\obj/../APP/app_usb.c:304
          if(SetupReqCode==0x5F)
     fd8:	05f00713          	li	a4,95
     fdc:	18e79c63          	bne	a5,a4,1174 <USB_DevTransProcess+0x248>
C:\Users\Astap\Desktop\CH583EVT\EVT\EXAM\BLE\Direct_Test_Mode\obj/../APP/app_usb.c:306
            pDescr = Return1;
     fe0:	00001797          	auipc	a5,0x1
     fe4:	1a078793          	addi	a5,a5,416 # 2180 <Return1>
C:\Users\Astap\Desktop\CH583EVT\EVT\EXAM\BLE\Direct_Test_Mode\obj/../APP/app_usb.c:318
              pDescr = Return3;
     fe8:	80f1ae23          	sw	a5,-2020(gp) # 20000ba4 <pDescr>
C:\Users\Astap\Desktop\CH583EVT\EVT\EXAM\BLE\Direct_Test_Mode\obj/../APP/app_usb.c:299
      errflag = 0;
     fec:	4401                	li	s0,0
C:\Users\Astap\Desktop\CH583EVT\EVT\EXAM\BLE\Direct_Test_Mode\obj/../APP/app_usb.c:319
              len = sizeof(Return3);
     fee:	4609                	li	a2,2
C:\Users\Astap\Desktop\CH583EVT\EVT\EXAM\BLE\Direct_Test_Mode\obj/../APP/app_usb.c:326
          memcpy(pEP0_DataBuf,pDescr,len);
     ff0:	81c18793          	addi	a5,gp,-2020 # 20000ba4 <pDescr>
     ff4:	438c                	lw	a1,0(a5)
     ff6:	2179                	jal	1484 <memcpy>
C:\Users\Astap\Desktop\CH583EVT\EVT\EXAM\BLE\Direct_Test_Mode\obj/../APP/app_usb.c:469
      if ( errflag == 0xff )        // 错误或不支持
     ff8:	0ff00793          	li	a5,255
     ffc:	24f40f63          	beq	s0,a5,125a <USB_DevTransProcess+0x32e>
C:\Users\Astap\Desktop\CH583EVT\EVT\EXAM\BLE\Direct_Test_Mode\obj/../APP/app_usb.c:479
              DevEP0SIZE : SetupReqLen;
    1000:	81a1d783          	lhu	a5,-2022(gp) # 20000ba2 <SetupReqLen>
    1004:	04000693          	li	a3,64
    1008:	873e                	mv	a4,a5
    100a:	00f6f463          	bgeu	a3,a5,1012 <USB_DevTransProcess+0xe6>
    100e:	04000713          	li	a4,64
    1012:	0742                	slli	a4,a4,0x10
    1014:	8341                	srli	a4,a4,0x10
C:\Users\Astap\Desktop\CH583EVT\EVT\EXAM\BLE\Direct_Test_Mode\obj/../APP/app_usb.c:480
          SetupReqLen -= len;
    1016:	8f99                	sub	a5,a5,a4
C:\Users\Astap\Desktop\CH583EVT\EVT\EXAM\BLE\Direct_Test_Mode\obj/../APP/app_usb.c:478
          len = ( SetupReqLen > DevEP0SIZE ) ?
    1018:	0ff77693          	andi	a3,a4,255
C:\Users\Astap\Desktop\CH583EVT\EVT\EXAM\BLE\Direct_Test_Mode\obj/../APP/app_usb.c:480
          SetupReqLen -= len;
    101c:	80f19d23          	sh	a5,-2022(gp) # 20000ba2 <SetupReqLen>
C:\Users\Astap\Desktop\CH583EVT\EVT\EXAM\BLE\Direct_Test_Mode\obj/../APP/app_usb.c:484
        R8_UEP0_T_LEN = len;
    1020:	400087b7          	lui	a5,0x40008
    1024:	02d78023          	sb	a3,32(a5) # 40008020 <_eusrstack+0x20000020>
C:\Users\Astap\Desktop\CH583EVT\EVT\EXAM\BLE\Direct_Test_Mode\obj/../APP/app_usb.c:485
        R8_UEP0_CTRL = RB_UEP_R_TOG | RB_UEP_T_TOG | UEP_R_RES_ACK | UEP_T_RES_ACK;    // 默认数据包是DATA1
    1028:	fc000713          	li	a4,-64
    102c:	ac1d                	j	1262 <USB_DevTransProcess+0x336>
    102e:	02200693          	li	a3,34
    1032:	0ed70963          	beq	a4,a3,1124 <USB_DevTransProcess+0x1f8>
    1036:	02e6e363          	bltu	a3,a4,105c <USB_DevTransProcess+0x130>
    103a:	02000693          	li	a3,32
    103e:	04d70663          	beq	a4,a3,108a <USB_DevTransProcess+0x15e>
    1042:	02100693          	li	a3,33
    1046:	f2d71fe3          	bne	a4,a3,f84 <USB_DevTransProcess+0x58>
C:\Users\Astap\Desktop\CH583EVT\EVT\EXAM\BLE\Direct_Test_Mode\obj/../APP/app_usb.c:239
          R8_UEP1_CTRL = ( R8_UEP1_CTRL & ~MASK_UEP_T_RES ) | UEP_T_RES_NAK;
    104a:	0267c703          	lbu	a4,38(a5)
    104e:	0fc77713          	andi	a4,a4,252
    1052:	00276713          	ori	a4,a4,2
    1056:	02e78323          	sb	a4,38(a5)
C:\Users\Astap\Desktop\CH583EVT\EVT\EXAM\BLE\Direct_Test_Mode\obj/../APP/app_usb.c:240
          break;
    105a:	b72d                	j	f84 <USB_DevTransProcess+0x58>
    105c:	02300693          	li	a3,35
    1060:	0ed70463          	beq	a4,a3,1148 <USB_DevTransProcess+0x21c>
    1064:	02400693          	li	a3,36
    1068:	f0d71ee3          	bne	a4,a3,f84 <USB_DevTransProcess+0x58>
C:\Users\Astap\Desktop\CH583EVT\EVT\EXAM\BLE\Direct_Test_Mode\obj/../APP/app_usb.c:282
          R8_UEP4_CTRL ^= RB_UEP_T_TOG;
    106c:	0327c703          	lbu	a4,50(a5)
    1070:	04074713          	xori	a4,a4,64
    1074:	02e78923          	sb	a4,50(a5)
C:\Users\Astap\Desktop\CH583EVT\EVT\EXAM\BLE\Direct_Test_Mode\obj/../APP/app_usb.c:283
          R8_UEP4_CTRL = ( R8_UEP4_CTRL & ~MASK_UEP_T_RES ) | UEP_T_RES_NAK;
    1078:	0327c703          	lbu	a4,50(a5)
    107c:	0fc77713          	andi	a4,a4,252
    1080:	00276713          	ori	a4,a4,2
    1084:	02e78923          	sb	a4,50(a5)
C:\Users\Astap\Desktop\CH583EVT\EVT\EXAM\BLE\Direct_Test_Mode\obj/../APP/app_usb.c:284
          break;
    1088:	bdf5                	j	f84 <USB_DevTransProcess+0x58>
C:\Users\Astap\Desktop\CH583EVT\EVT\EXAM\BLE\Direct_Test_Mode\obj/../APP/app_usb.c:199
          switch ( SetupReqCode )
    108a:	8191c703          	lbu	a4,-2023(gp) # 20000ba1 <SetupReqCode>
    108e:	4695                	li	a3,5
    1090:	06d70263          	beq	a4,a3,10f4 <USB_DevTransProcess+0x1c8>
    1094:	4699                	li	a3,6
    1096:	06d71a63          	bne	a4,a3,110a <USB_DevTransProcess+0x1de>
C:\Users\Astap\Desktop\CH583EVT\EVT\EXAM\BLE\Direct_Test_Mode\obj/../APP/app_usb.c:203
                  DevEP0SIZE : SetupReqLen;    // 本次传输长度
    109a:	81a18793          	addi	a5,gp,-2022 # 20000ba2 <SetupReqLen>
    109e:	0007d403          	lhu	s0,0(a5)
    10a2:	04000713          	li	a4,64
    10a6:	84be                	mv	s1,a5
    10a8:	00877463          	bgeu	a4,s0,10b0 <USB_DevTransProcess+0x184>
    10ac:	04000413          	li	s0,64
C:\Users\Astap\Desktop\CH583EVT\EVT\EXAM\BLE\Direct_Test_Mode\obj/../APP/app_usb.c:204
              memcpy( pEP0_DataBuf, pDescr, len ); /* 加载上传数据 */
    10b0:	80c18793          	addi	a5,gp,-2036 # 20000b94 <pEP0_RAM_Addr>
    10b4:	81c18913          	addi	s2,gp,-2020 # 20000ba4 <pDescr>
    10b8:	4388                	lw	a0,0(a5)
C:\Users\Astap\Desktop\CH583EVT\EVT\EXAM\BLE\Direct_Test_Mode\obj/../APP/app_usb.c:203
                  DevEP0SIZE : SetupReqLen;    // 本次传输长度
    10ba:	0442                	slli	s0,s0,0x10
C:\Users\Astap\Desktop\CH583EVT\EVT\EXAM\BLE\Direct_Test_Mode\obj/../APP/app_usb.c:204
              memcpy( pEP0_DataBuf, pDescr, len ); /* 加载上传数据 */
    10bc:	00092583          	lw	a1,0(s2)
C:\Users\Astap\Desktop\CH583EVT\EVT\EXAM\BLE\Direct_Test_Mode\obj/../APP/app_usb.c:203
                  DevEP0SIZE : SetupReqLen;    // 本次传输长度
    10c0:	8041                	srli	s0,s0,0x10
C:\Users\Astap\Desktop\CH583EVT\EVT\EXAM\BLE\Direct_Test_Mode\obj/../APP/app_usb.c:204
              memcpy( pEP0_DataBuf, pDescr, len ); /* 加载上传数据 */
    10c2:	8622                	mv	a2,s0
    10c4:	26c1                	jal	1484 <memcpy>
C:\Users\Astap\Desktop\CH583EVT\EVT\EXAM\BLE\Direct_Test_Mode\obj/../APP/app_usb.c:205
              SetupReqLen -= len;
    10c6:	0004d783          	lhu	a5,0(s1)
C:\Users\Astap\Desktop\CH583EVT\EVT\EXAM\BLE\Direct_Test_Mode\obj/../APP/app_usb.c:202
              len = SetupReqLen >= DevEP0SIZE ?
    10ca:	0ff47993          	andi	s3,s0,255
C:\Users\Astap\Desktop\CH583EVT\EVT\EXAM\BLE\Direct_Test_Mode\obj/../APP/app_usb.c:205
              SetupReqLen -= len;
    10ce:	8f81                	sub	a5,a5,s0
    10d0:	80f19d23          	sh	a5,-2022(gp) # 20000ba2 <SetupReqLen>
C:\Users\Astap\Desktop\CH583EVT\EVT\EXAM\BLE\Direct_Test_Mode\obj/../APP/app_usb.c:206
              pDescr += len;
    10d4:	00092783          	lw	a5,0(s2)
    10d8:	943e                	add	s0,s0,a5
    10da:	8081ae23          	sw	s0,-2020(gp) # 20000ba4 <pDescr>
C:\Users\Astap\Desktop\CH583EVT\EVT\EXAM\BLE\Direct_Test_Mode\obj/../APP/app_usb.c:207
              R8_UEP0_T_LEN = len;
    10de:	400087b7          	lui	a5,0x40008
    10e2:	03378023          	sb	s3,32(a5) # 40008020 <_eusrstack+0x20000020>
C:\Users\Astap\Desktop\CH583EVT\EVT\EXAM\BLE\Direct_Test_Mode\obj/../APP/app_usb.c:208
              R8_UEP0_CTRL ^= RB_UEP_T_TOG;                             // 翻转
    10e6:	0227c703          	lbu	a4,34(a5)
    10ea:	04074713          	xori	a4,a4,64
C:\Users\Astap\Desktop\CH583EVT\EVT\EXAM\BLE\Direct_Test_Mode\obj/../APP/app_usb.c:212
              R8_UEP0_CTRL = UEP_R_RES_ACK | UEP_T_RES_NAK;
    10ee:	02e78123          	sb	a4,34(a5)
C:\Users\Astap\Desktop\CH583EVT\EVT\EXAM\BLE\Direct_Test_Mode\obj/../APP/app_usb.c:213
              break;
    10f2:	bd49                	j	f84 <USB_DevTransProcess+0x58>
C:\Users\Astap\Desktop\CH583EVT\EVT\EXAM\BLE\Direct_Test_Mode\obj/../APP/app_usb.c:211
              R8_USB_DEV_AD = ( R8_USB_DEV_AD & RB_UDA_GP_BIT ) | SetupReqLen;
    10f4:	0037c703          	lbu	a4,3(a5)
    10f8:	81a1c683          	lbu	a3,-2022(gp) # 20000ba2 <SetupReqLen>
    10fc:	08077713          	andi	a4,a4,128
    1100:	8f55                	or	a4,a4,a3
    1102:	00e781a3          	sb	a4,3(a5)
C:\Users\Astap\Desktop\CH583EVT\EVT\EXAM\BLE\Direct_Test_Mode\obj/../APP/app_usb.c:212
              R8_UEP0_CTRL = UEP_R_RES_ACK | UEP_T_RES_NAK;
    1106:	4709                	li	a4,2
    1108:	b7dd                	j	10ee <USB_DevTransProcess+0x1c2>
C:\Users\Astap\Desktop\CH583EVT\EVT\EXAM\BLE\Direct_Test_Mode\obj/../APP/app_usb.c:215
              R8_UEP0_T_LEN = 0;                                      // 状态阶段完成中断或者是强制上传0长度数据包结束控制传输
    110a:	02078023          	sb	zero,32(a5)
C:\Users\Astap\Desktop\CH583EVT\EVT\EXAM\BLE\Direct_Test_Mode\obj/../APP/app_usb.c:216
              R8_UEP0_CTRL = UEP_R_RES_ACK | UEP_T_RES_NAK;
    110e:	bfe5                	j	1106 <USB_DevTransProcess+0x1da>
C:\Users\Astap\Desktop\CH583EVT\EVT\EXAM\BLE\Direct_Test_Mode\obj/../APP/app_usb.c:244
          if ( R8_USB_INT_ST & RB_UIS_TOG_OK )
    1110:	0077c703          	lbu	a4,7(a5)
    1114:	04077713          	andi	a4,a4,64
    1118:	e60706e3          	beqz	a4,f84 <USB_DevTransProcess+0x58>
C:\Users\Astap\Desktop\CH583EVT\EVT\EXAM\BLE\Direct_Test_Mode\obj/../APP/app_usb.c:246
            len = R8_USB_RX_LEN;
    111c:	0087c503          	lbu	a0,8(a5)
C:\Users\Astap\Desktop\CH583EVT\EVT\EXAM\BLE\Direct_Test_Mode\obj/../APP/app_usb.c:247
            DevEP2_OUT_Deal( len );
    1120:	33c1                	jal	ee0 <DevEP2_OUT_Deal>
    1122:	b58d                	j	f84 <USB_DevTransProcess+0x58>
C:\Users\Astap\Desktop\CH583EVT\EVT\EXAM\BLE\Direct_Test_Mode\obj/../APP/app_usb.c:253
          R8_UEP2_CTRL = ( R8_UEP2_CTRL & ~MASK_UEP_T_RES ) | UEP_T_RES_NAK;
    1124:	02a7c703          	lbu	a4,42(a5)
    1128:	0fc77713          	andi	a4,a4,252
    112c:	00276713          	ori	a4,a4,2
    1130:	02e78523          	sb	a4,42(a5)
C:\Users\Astap\Desktop\CH583EVT\EVT\EXAM\BLE\Direct_Test_Mode\obj/../APP/app_usb.c:254
          break;
    1134:	bd81                	j	f84 <USB_DevTransProcess+0x58>
C:\Users\Astap\Desktop\CH583EVT\EVT\EXAM\BLE\Direct_Test_Mode\obj/../APP/app_usb.c:258
          if ( R8_USB_INT_ST & RB_UIS_TOG_OK )
    1136:	0077c703          	lbu	a4,7(a5)
    113a:	04077713          	andi	a4,a4,64
    113e:	e40703e3          	beqz	a4,f84 <USB_DevTransProcess+0x58>
C:\Users\Astap\Desktop\CH583EVT\EVT\EXAM\BLE\Direct_Test_Mode\obj/../APP/app_usb.c:275
            len = R8_USB_RX_LEN;
    1142:	0087c783          	lbu	a5,8(a5)
C:\Users\Astap\Desktop\CH583EVT\EVT\EXAM\BLE\Direct_Test_Mode\obj/../APP/app_usb.c:175
}
    1146:	bd3d                	j	f84 <USB_DevTransProcess+0x58>
C:\Users\Astap\Desktop\CH583EVT\EVT\EXAM\BLE\Direct_Test_Mode\obj/../APP/app_usb.c:267
          R8_UEP3_CTRL = ( R8_UEP3_CTRL & ~MASK_UEP_T_RES ) | UEP_T_RES_NAK;
    1148:	02e7c703          	lbu	a4,46(a5)
    114c:	0fc77713          	andi	a4,a4,252
    1150:	00276713          	ori	a4,a4,2
    1154:	02e78723          	sb	a4,46(a5)
C:\Users\Astap\Desktop\CH583EVT\EVT\EXAM\BLE\Direct_Test_Mode\obj/../APP/app_usb.c:268
          break;
    1158:	b535                	j	f84 <USB_DevTransProcess+0x58>
C:\Users\Astap\Desktop\CH583EVT\EVT\EXAM\BLE\Direct_Test_Mode\obj/../APP/app_usb.c:272
          if ( R8_USB_INT_ST & RB_UIS_TOG_OK )
    115a:	0077c703          	lbu	a4,7(a5)
    115e:	04077713          	andi	a4,a4,64
    1162:	e20701e3          	beqz	a4,f84 <USB_DevTransProcess+0x58>
C:\Users\Astap\Desktop\CH583EVT\EVT\EXAM\BLE\Direct_Test_Mode\obj/../APP/app_usb.c:274
            R8_UEP4_CTRL ^= RB_UEP_R_TOG;
    1166:	0327c703          	lbu	a4,50(a5)
    116a:	08074713          	xori	a4,a4,128
    116e:	02e78923          	sb	a4,50(a5)
    1172:	bfc1                	j	1142 <USB_DevTransProcess+0x216>
C:\Users\Astap\Desktop\CH583EVT\EVT\EXAM\BLE\Direct_Test_Mode\obj/../APP/app_usb.c:309
          else if(SetupReqCode==0x95)
    1174:	09500713          	li	a4,149
C:\Users\Astap\Desktop\CH583EVT\EVT\EXAM\BLE\Direct_Test_Mode\obj/../APP/app_usb.c:324
            errflag = 0xFF;
    1178:	0ff00413          	li	s0,255
C:\Users\Astap\Desktop\CH583EVT\EVT\EXAM\BLE\Direct_Test_Mode\obj/../APP/app_usb.c:309
          else if(SetupReqCode==0x95)
    117c:	02e79963          	bne	a5,a4,11ae <USB_DevTransProcess+0x282>
C:\Users\Astap\Desktop\CH583EVT\EVT\EXAM\BLE\Direct_Test_Mode\obj/../APP/app_usb.c:311
            if((pSetupReqPak->wValue)==0x18)
    1180:	00354783          	lbu	a5,3(a0)
    1184:	00254703          	lbu	a4,2(a0)
    1188:	07a2                	slli	a5,a5,0x8
    118a:	8fd9                	or	a5,a5,a4
    118c:	4761                	li	a4,24
    118e:	00e79763          	bne	a5,a4,119c <USB_DevTransProcess+0x270>
C:\Users\Astap\Desktop\CH583EVT\EVT\EXAM\BLE\Direct_Test_Mode\obj/../APP/app_usb.c:313
              pDescr = Return2;
    1192:	00001797          	auipc	a5,0x1
    1196:	ff278793          	addi	a5,a5,-14 # 2184 <Return2>
    119a:	b5b9                	j	fe8 <USB_DevTransProcess+0xbc>
C:\Users\Astap\Desktop\CH583EVT\EVT\EXAM\BLE\Direct_Test_Mode\obj/../APP/app_usb.c:316
            else if((pSetupReqPak->wValue)==0x06)
    119c:	4719                	li	a4,6
C:\Users\Astap\Desktop\CH583EVT\EVT\EXAM\BLE\Direct_Test_Mode\obj/../APP/app_usb.c:299
      errflag = 0;
    119e:	4401                	li	s0,0
C:\Users\Astap\Desktop\CH583EVT\EVT\EXAM\BLE\Direct_Test_Mode\obj/../APP/app_usb.c:316
            else if((pSetupReqPak->wValue)==0x06)
    11a0:	00e79763          	bne	a5,a4,11ae <USB_DevTransProcess+0x282>
C:\Users\Astap\Desktop\CH583EVT\EVT\EXAM\BLE\Direct_Test_Mode\obj/../APP/app_usb.c:318
              pDescr = Return3;
    11a4:	00001797          	auipc	a5,0x1
    11a8:	fe478793          	addi	a5,a5,-28 # 2188 <Return3>
    11ac:	bd35                	j	fe8 <USB_DevTransProcess+0xbc>
C:\Users\Astap\Desktop\CH583EVT\EVT\EXAM\BLE\Direct_Test_Mode\obj/../APP/app_usb.c:298
      len = 0;
    11ae:	4601                	li	a2,0
    11b0:	b581                	j	ff0 <USB_DevTransProcess+0xc4>
C:\Users\Astap\Desktop\CH583EVT\EVT\EXAM\BLE\Direct_Test_Mode\obj/../APP/app_usb.c:335
        switch ( SetupReqCode )
    11b2:	4629                	li	a2,10
    11b4:	0af66363          	bltu	a2,a5,125a <USB_DevTransProcess+0x32e>
    11b8:	00001617          	auipc	a2,0x1
    11bc:	ebc60613          	addi	a2,a2,-324 # 2074 <_read+0x34>
    11c0:	078a                	slli	a5,a5,0x2
    11c2:	97b2                	add	a5,a5,a2
    11c4:	439c                	lw	a5,0(a5)
    11c6:	97b2                	add	a5,a5,a2
    11c8:	8782                	jr	a5
C:\Users\Astap\Desktop\CH583EVT\EVT\EXAM\BLE\Direct_Test_Mode\obj/../APP/app_usb.c:339
            switch ( ( ( pSetupReqPak->wValue ) >> 8 ) )
    11ca:	00354783          	lbu	a5,3(a0)
    11ce:	00254683          	lbu	a3,2(a0)
    11d2:	4609                	li	a2,2
    11d4:	07a2                	slli	a5,a5,0x8
    11d6:	8fd5                	or	a5,a5,a3
    11d8:	0087d693          	srli	a3,a5,0x8
    11dc:	0ac68163          	beq	a3,a2,127e <USB_DevTransProcess+0x352>
    11e0:	00d66863          	bltu	a2,a3,11f0 <USB_DevTransProcess+0x2c4>
    11e4:	4785                	li	a5,1
    11e6:	00f68f63          	beq	a3,a5,1204 <USB_DevTransProcess+0x2d8>
C:\Users\Astap\Desktop\CH583EVT\EVT\EXAM\BLE\Direct_Test_Mode\obj/../APP/app_usb.c:397
                errflag = 0xff;
    11ea:	0ff00413          	li	s0,255
    11ee:	a809                	j	1200 <USB_DevTransProcess+0x2d4>
    11f0:	458d                	li	a1,3
    11f2:	0ab68063          	beq	a3,a1,1292 <USB_DevTransProcess+0x366>
    11f6:	02200793          	li	a5,34
C:\Users\Astap\Desktop\CH583EVT\EVT\EXAM\BLE\Direct_Test_Mode\obj/../APP/app_usb.c:299
      errflag = 0;
    11fa:	4401                	li	s0,0
    11fc:	fef697e3          	bne	a3,a5,11ea <USB_DevTransProcess+0x2be>
C:\Users\Astap\Desktop\CH583EVT\EVT\EXAM\BLE\Direct_Test_Mode\obj/../APP/app_usb.c:298
      len = 0;
    1200:	4781                	li	a5,0
    1202:	a809                	j	1214 <USB_DevTransProcess+0x2e8>
C:\Users\Astap\Desktop\CH583EVT\EVT\EXAM\BLE\Direct_Test_Mode\obj/../APP/app_usb.c:343
                pDescr = MyDevDescr;
    1204:	00001797          	auipc	a5,0x1
    1208:	ec478793          	addi	a5,a5,-316 # 20c8 <MyDevDescr>
    120c:	80f1ae23          	sw	a5,-2020(gp) # 20000ba4 <pDescr>
C:\Users\Astap\Desktop\CH583EVT\EVT\EXAM\BLE\Direct_Test_Mode\obj/../APP/app_usb.c:299
      errflag = 0;
    1210:	4401                	li	s0,0
C:\Users\Astap\Desktop\CH583EVT\EVT\EXAM\BLE\Direct_Test_Mode\obj/../APP/app_usb.c:344
                len = sizeof(MyDevDescr);
    1212:	47c9                	li	a5,18
C:\Users\Astap\Desktop\CH583EVT\EVT\EXAM\BLE\Direct_Test_Mode\obj/../APP/app_usb.c:400
            if ( SetupReqLen > len )
    1214:	07c2                	slli	a5,a5,0x10
    1216:	83c1                	srli	a5,a5,0x10
    1218:	00e7f463          	bgeu	a5,a4,1220 <USB_DevTransProcess+0x2f4>
C:\Users\Astap\Desktop\CH583EVT\EVT\EXAM\BLE\Direct_Test_Mode\obj/../APP/app_usb.c:401
              SetupReqLen = len;      //实际需上传总长度
    121c:	80f19d23          	sh	a5,-2022(gp) # 20000ba2 <SetupReqLen>
C:\Users\Astap\Desktop\CH583EVT\EVT\EXAM\BLE\Direct_Test_Mode\obj/../APP/app_usb.c:403
                DevEP0SIZE : SetupReqLen;
    1220:	81a18793          	addi	a5,gp,-2022 # 20000ba2 <SetupReqLen>
    1224:	0007d603          	lhu	a2,0(a5)
    1228:	04000793          	li	a5,64
    122c:	00c7f463          	bgeu	a5,a2,1234 <USB_DevTransProcess+0x308>
    1230:	04000613          	li	a2,64
C:\Users\Astap\Desktop\CH583EVT\EVT\EXAM\BLE\Direct_Test_Mode\obj/../APP/app_usb.c:404
            memcpy( pEP0_DataBuf, pDescr, len );
    1234:	81c18993          	addi	s3,gp,-2020 # 20000ba4 <pDescr>
    1238:	01061913          	slli	s2,a2,0x10
    123c:	0009a583          	lw	a1,0(s3)
    1240:	01095913          	srli	s2,s2,0x10
    1244:	864a                	mv	a2,s2
    1246:	2c3d                	jal	1484 <memcpy>
C:\Users\Astap\Desktop\CH583EVT\EVT\EXAM\BLE\Direct_Test_Mode\obj/../APP/app_usb.c:405
            pDescr += len;
    1248:	0009a603          	lw	a2,0(s3)
    124c:	964a                	add	a2,a2,s2
    124e:	80c1ae23          	sw	a2,-2020(gp) # 20000ba4 <pDescr>
C:\Users\Astap\Desktop\CH583EVT\EVT\EXAM\BLE\Direct_Test_Mode\obj/../APP/app_usb.c:469
      if ( errflag == 0xff )        // 错误或不支持
    1252:	0ff00793          	li	a5,255
    1256:	0af41563          	bne	s0,a5,1300 <USB_DevTransProcess+0x3d4>
C:\Users\Astap\Desktop\CH583EVT\EVT\EXAM\BLE\Direct_Test_Mode\obj/../APP/app_usb.c:472
        R8_UEP0_CTRL = RB_UEP_R_TOG | RB_UEP_T_TOG | UEP_R_RES_STALL | UEP_T_RES_STALL;    // STALL
    125a:	400087b7          	lui	a5,0x40008
    125e:	fcf00713          	li	a4,-49
C:\Users\Astap\Desktop\CH583EVT\EVT\EXAM\BLE\Direct_Test_Mode\obj/../APP/app_usb.c:485
        R8_UEP0_CTRL = RB_UEP_R_TOG | RB_UEP_T_TOG | UEP_R_RES_ACK | UEP_T_RES_ACK;    // 默认数据包是DATA1
    1262:	02e78123          	sb	a4,34(a5) # 40008022 <_eusrstack+0x20000022>
C:\Users\Astap\Desktop\CH583EVT\EVT\EXAM\BLE\Direct_Test_Mode\obj/../APP/app_usb.c:488
      R8_USB_INT_FG = RB_UIF_TRANSFER;
    1266:	400087b7          	lui	a5,0x40008
    126a:	4709                	li	a4,2
    126c:	00e78323          	sb	a4,6(a5) # 40008006 <_eusrstack+0x20000006>
C:\Users\Astap\Desktop\CH583EVT\EVT\EXAM\BLE\Direct_Test_Mode\obj/../APP/app_usb.c:516
}
    1270:	40f2                	lw	ra,28(sp)
    1272:	4462                	lw	s0,24(sp)
    1274:	44d2                	lw	s1,20(sp)
    1276:	4942                	lw	s2,16(sp)
    1278:	49b2                	lw	s3,12(sp)
    127a:	6105                	addi	sp,sp,32
    127c:	8082                	ret
C:\Users\Astap\Desktop\CH583EVT\EVT\EXAM\BLE\Direct_Test_Mode\obj/../APP/app_usb.c:350
                pDescr = MyCfgDescr;
    127e:	00001797          	auipc	a5,0x1
    1282:	e2278793          	addi	a5,a5,-478 # 20a0 <MyCfgDescr>
    1286:	80f1ae23          	sw	a5,-2020(gp) # 20000ba4 <pDescr>
C:\Users\Astap\Desktop\CH583EVT\EVT\EXAM\BLE\Direct_Test_Mode\obj/../APP/app_usb.c:299
      errflag = 0;
    128a:	4401                	li	s0,0
C:\Users\Astap\Desktop\CH583EVT\EVT\EXAM\BLE\Direct_Test_Mode\obj/../APP/app_usb.c:351
                len = sizeof(MyCfgDescr);
    128c:	02700793          	li	a5,39
    1290:	b751                	j	1214 <USB_DevTransProcess+0x2e8>
C:\Users\Astap\Desktop\CH583EVT\EVT\EXAM\BLE\Direct_Test_Mode\obj/../APP/app_usb.c:375
                switch ( ( pSetupReqPak->wValue ) & 0xff )
    1292:	0ff7f793          	andi	a5,a5,255
    1296:	4685                	li	a3,1
    1298:	00d78e63          	beq	a5,a3,12b4 <USB_DevTransProcess+0x388>
    129c:	c78d                	beqz	a5,12c6 <USB_DevTransProcess+0x39a>
    129e:	f4c796e3          	bne	a5,a2,11ea <USB_DevTransProcess+0x2be>
C:\Users\Astap\Desktop\CH583EVT\EVT\EXAM\BLE\Direct_Test_Mode\obj/../APP/app_usb.c:382
                    pDescr = StrDesc;
    12a2:	00001797          	auipc	a5,0x1
    12a6:	e4a78793          	addi	a5,a5,-438 # 20ec <StrDesc>
    12aa:	80f1ae23          	sw	a5,-2020(gp) # 20000ba4 <pDescr>
C:\Users\Astap\Desktop\CH583EVT\EVT\EXAM\BLE\Direct_Test_Mode\obj/../APP/app_usb.c:299
      errflag = 0;
    12ae:	4401                	li	s0,0
C:\Users\Astap\Desktop\CH583EVT\EVT\EXAM\BLE\Direct_Test_Mode\obj/../APP/app_usb.c:383
                    len = StrDesc[0];
    12b0:	47f1                	li	a5,28
    12b2:	b78d                	j	1214 <USB_DevTransProcess+0x2e8>
C:\Users\Astap\Desktop\CH583EVT\EVT\EXAM\BLE\Direct_Test_Mode\obj/../APP/app_usb.c:378
                    pDescr = MyManuInfo;
    12b4:	00001797          	auipc	a5,0x1
    12b8:	e2878793          	addi	a5,a5,-472 # 20dc <MyManuInfo>
    12bc:	80f1ae23          	sw	a5,-2020(gp) # 20000ba4 <pDescr>
C:\Users\Astap\Desktop\CH583EVT\EVT\EXAM\BLE\Direct_Test_Mode\obj/../APP/app_usb.c:299
      errflag = 0;
    12c0:	4401                	li	s0,0
C:\Users\Astap\Desktop\CH583EVT\EVT\EXAM\BLE\Direct_Test_Mode\obj/../APP/app_usb.c:379
                    len = MyManuInfo[0];
    12c2:	47b9                	li	a5,14
    12c4:	bf81                	j	1214 <USB_DevTransProcess+0x2e8>
C:\Users\Astap\Desktop\CH583EVT\EVT\EXAM\BLE\Direct_Test_Mode\obj/../APP/app_usb.c:386
                    pDescr = MyLangDescr;
    12c6:	00001797          	auipc	a5,0x1
    12ca:	eb678793          	addi	a5,a5,-330 # 217c <MyLangDescr>
    12ce:	80f1ae23          	sw	a5,-2020(gp) # 20000ba4 <pDescr>
C:\Users\Astap\Desktop\CH583EVT\EVT\EXAM\BLE\Direct_Test_Mode\obj/../APP/app_usb.c:299
      errflag = 0;
    12d2:	4401                	li	s0,0
C:\Users\Astap\Desktop\CH583EVT\EVT\EXAM\BLE\Direct_Test_Mode\obj/../APP/app_usb.c:387
                    len = MyLangDescr[0];
    12d4:	4791                	li	a5,4
    12d6:	bf3d                	j	1214 <USB_DevTransProcess+0x2e8>
C:\Users\Astap\Desktop\CH583EVT\EVT\EXAM\BLE\Direct_Test_Mode\obj/../APP/app_usb.c:410
            SetupReqLen = ( pSetupReqPak->wValue ) & 0xff;
    12d8:	00254783          	lbu	a5,2(a0)
C:\Users\Astap\Desktop\CH583EVT\EVT\EXAM\BLE\Direct_Test_Mode\obj/../APP/app_usb.c:461
              SetupReqLen = 2;
    12dc:	80f19d23          	sh	a5,-2022(gp) # 20000ba2 <SetupReqLen>
C:\Users\Astap\Desktop\CH583EVT\EVT\EXAM\BLE\Direct_Test_Mode\obj/../APP/app_usb.c:469
      if ( errflag == 0xff )        // 错误或不支持
    12e0:	a005                	j	1300 <USB_DevTransProcess+0x3d4>
C:\Users\Astap\Desktop\CH583EVT\EVT\EXAM\BLE\Direct_Test_Mode\obj/../APP/app_usb.c:414
            pEP0_DataBuf[0] = DevConfig;
    12e2:	8181c783          	lbu	a5,-2024(gp) # 20000ba0 <DevConfig>
    12e6:	00f50023          	sb	a5,0(a0)
C:\Users\Astap\Desktop\CH583EVT\EVT\EXAM\BLE\Direct_Test_Mode\obj/../APP/app_usb.c:415
            if ( SetupReqLen > 1 )
    12ea:	81a1d703          	lhu	a4,-2022(gp) # 20000ba2 <SetupReqLen>
    12ee:	4785                	li	a5,1
    12f0:	00e7f863          	bgeu	a5,a4,1300 <USB_DevTransProcess+0x3d4>
C:\Users\Astap\Desktop\CH583EVT\EVT\EXAM\BLE\Direct_Test_Mode\obj/../APP/app_usb.c:416
              SetupReqLen = 1;
    12f4:	4785                	li	a5,1
    12f6:	b7dd                	j	12dc <USB_DevTransProcess+0x3b0>
C:\Users\Astap\Desktop\CH583EVT\EVT\EXAM\BLE\Direct_Test_Mode\obj/../APP/app_usb.c:420
            DevConfig = ( pSetupReqPak->wValue ) & 0xff;
    12f8:	00254783          	lbu	a5,2(a0)
    12fc:	80f18c23          	sb	a5,-2024(gp) # 20000ba0 <DevConfig>
C:\Users\Astap\Desktop\CH583EVT\EVT\EXAM\BLE\Direct_Test_Mode\obj/../APP/app_usb.c:476
        if ( chtype & 0x80 )     // 上传
    1300:	04e2                	slli	s1,s1,0x18
    1302:	84e1                	srai	s1,s1,0x18
    1304:	ce04cee3          	bltz	s1,1000 <USB_DevTransProcess+0xd4>
C:\Users\Astap\Desktop\CH583EVT\EVT\EXAM\BLE\Direct_Test_Mode\obj/../APP/app_usb.c:483
          len = 0;        // 下传
    1308:	4681                	li	a3,0
    130a:	bb19                	j	1020 <USB_DevTransProcess+0xf4>
C:\Users\Astap\Desktop\CH583EVT\EVT\EXAM\BLE\Direct_Test_Mode\obj/../APP/app_usb.c:425
            if ( ( pSetupReqPak->bRequestType & USB_REQ_RECIP_MASK ) == USB_REQ_RECIP_ENDP )    // 端点
    130c:	01f4f713          	andi	a4,s1,31
    1310:	4789                	li	a5,2
    1312:	f4f714e3          	bne	a4,a5,125a <USB_DevTransProcess+0x32e>
C:\Users\Astap\Desktop\CH583EVT\EVT\EXAM\BLE\Direct_Test_Mode\obj/../APP/app_usb.c:427
              switch ( ( pSetupReqPak->wIndex ) & 0xff )
    1316:	00454783          	lbu	a5,4(a0)
    131a:	04e78163          	beq	a5,a4,135c <USB_DevTransProcess+0x430>
    131e:	00f76c63          	bltu	a4,a5,1336 <USB_DevTransProcess+0x40a>
    1322:	4705                	li	a4,1
    1324:	f2e79be3          	bne	a5,a4,125a <USB_DevTransProcess+0x32e>
C:\Users\Astap\Desktop\CH583EVT\EVT\EXAM\BLE\Direct_Test_Mode\obj/../APP/app_usb.c:439
                  R8_UEP1_CTRL = ( R8_UEP1_CTRL & ~( RB_UEP_R_TOG | MASK_UEP_R_RES ) ) | UEP_R_RES_ACK;
    1328:	40008737          	lui	a4,0x40008
    132c:	02674783          	lbu	a5,38(a4) # 40008026 <_eusrstack+0x20000026>
    1330:	0737f793          	andi	a5,a5,115
    1334:	a099                	j	137a <USB_DevTransProcess+0x44e>
    1336:	08100713          	li	a4,129
    133a:	02e78863          	beq	a5,a4,136a <USB_DevTransProcess+0x43e>
    133e:	08200713          	li	a4,130
    1342:	f0e79ce3          	bne	a5,a4,125a <USB_DevTransProcess+0x32e>
C:\Users\Astap\Desktop\CH583EVT\EVT\EXAM\BLE\Direct_Test_Mode\obj/../APP/app_usb.c:430
                  R8_UEP2_CTRL = ( R8_UEP2_CTRL & ~( RB_UEP_T_TOG | MASK_UEP_T_RES ) ) | UEP_T_RES_NAK;
    1346:	40008737          	lui	a4,0x40008
    134a:	02a74783          	lbu	a5,42(a4) # 4000802a <_eusrstack+0x2000002a>
    134e:	0bc7f793          	andi	a5,a5,188
    1352:	0027e793          	ori	a5,a5,2
C:\Users\Astap\Desktop\CH583EVT\EVT\EXAM\BLE\Direct_Test_Mode\obj/../APP/app_usb.c:433
                  R8_UEP2_CTRL = ( R8_UEP2_CTRL & ~( RB_UEP_R_TOG | MASK_UEP_R_RES ) ) | UEP_R_RES_ACK;
    1356:	02f70523          	sb	a5,42(a4)
C:\Users\Astap\Desktop\CH583EVT\EVT\EXAM\BLE\Direct_Test_Mode\obj/../APP/app_usb.c:469
      if ( errflag == 0xff )        // 错误或不支持
    135a:	b75d                	j	1300 <USB_DevTransProcess+0x3d4>
C:\Users\Astap\Desktop\CH583EVT\EVT\EXAM\BLE\Direct_Test_Mode\obj/../APP/app_usb.c:433
                  R8_UEP2_CTRL = ( R8_UEP2_CTRL & ~( RB_UEP_R_TOG | MASK_UEP_R_RES ) ) | UEP_R_RES_ACK;
    135c:	40008737          	lui	a4,0x40008
    1360:	02a74783          	lbu	a5,42(a4) # 4000802a <_eusrstack+0x2000002a>
    1364:	0737f793          	andi	a5,a5,115
    1368:	b7fd                	j	1356 <USB_DevTransProcess+0x42a>
C:\Users\Astap\Desktop\CH583EVT\EVT\EXAM\BLE\Direct_Test_Mode\obj/../APP/app_usb.c:436
                  R8_UEP1_CTRL = ( R8_UEP1_CTRL & ~( RB_UEP_T_TOG | MASK_UEP_T_RES ) ) | UEP_T_RES_NAK;
    136a:	40008737          	lui	a4,0x40008
    136e:	02674783          	lbu	a5,38(a4) # 40008026 <_eusrstack+0x20000026>
    1372:	0bc7f793          	andi	a5,a5,188
    1376:	0027e793          	ori	a5,a5,2
C:\Users\Astap\Desktop\CH583EVT\EVT\EXAM\BLE\Direct_Test_Mode\obj/../APP/app_usb.c:439
                  R8_UEP1_CTRL = ( R8_UEP1_CTRL & ~( RB_UEP_R_TOG | MASK_UEP_R_RES ) ) | UEP_R_RES_ACK;
    137a:	02f70323          	sb	a5,38(a4)
C:\Users\Astap\Desktop\CH583EVT\EVT\EXAM\BLE\Direct_Test_Mode\obj/../APP/app_usb.c:469
      if ( errflag == 0xff )        // 错误或不支持
    137e:	b749                	j	1300 <USB_DevTransProcess+0x3d4>
C:\Users\Astap\Desktop\CH583EVT\EVT\EXAM\BLE\Direct_Test_Mode\obj/../APP/app_usb.c:452
            pEP0_DataBuf[0] = 0x00;
    1380:	00050023          	sb	zero,0(a0)
C:\Users\Astap\Desktop\CH583EVT\EVT\EXAM\BLE\Direct_Test_Mode\obj/../APP/app_usb.c:453
            if ( SetupReqLen > 1 )
    1384:	b79d                	j	12ea <USB_DevTransProcess+0x3be>
C:\Users\Astap\Desktop\CH583EVT\EVT\EXAM\BLE\Direct_Test_Mode\obj/../APP/app_usb.c:458
            pEP0_DataBuf[0] = 0x00;
    1386:	00050023          	sb	zero,0(a0)
C:\Users\Astap\Desktop\CH583EVT\EVT\EXAM\BLE\Direct_Test_Mode\obj/../APP/app_usb.c:459
            pEP0_DataBuf[1] = 0x00;
    138a:	429c                	lw	a5,0(a3)
    138c:	000780a3          	sb	zero,1(a5)
C:\Users\Astap\Desktop\CH583EVT\EVT\EXAM\BLE\Direct_Test_Mode\obj/../APP/app_usb.c:460
            if ( SetupReqLen > 2 )
    1390:	81a1d703          	lhu	a4,-2022(gp) # 20000ba2 <SetupReqLen>
    1394:	4789                	li	a5,2
    1396:	f6e7f5e3          	bgeu	a5,a4,1300 <USB_DevTransProcess+0x3d4>
    139a:	b789                	j	12dc <USB_DevTransProcess+0x3b0>
C:\Users\Astap\Desktop\CH583EVT\EVT\EXAM\BLE\Direct_Test_Mode\obj/../APP/app_usb.c:491
  else if ( intflag & RB_UIF_BUS_RST )
    139c:	00177693          	andi	a3,a4,1
    13a0:	c28d                	beqz	a3,13c2 <USB_DevTransProcess+0x496>
C:\Users\Astap\Desktop\CH583EVT\EVT\EXAM\BLE\Direct_Test_Mode\obj/../APP/app_usb.c:493
    R8_USB_DEV_AD = 0;
    13a2:	000781a3          	sb	zero,3(a5)
C:\Users\Astap\Desktop\CH583EVT\EVT\EXAM\BLE\Direct_Test_Mode\obj/../APP/app_usb.c:494
    R8_UEP0_CTRL = UEP_R_RES_ACK | UEP_T_RES_NAK;
    13a6:	4709                	li	a4,2
    13a8:	02e78123          	sb	a4,34(a5)
C:\Users\Astap\Desktop\CH583EVT\EVT\EXAM\BLE\Direct_Test_Mode\obj/../APP/app_usb.c:495
    R8_UEP1_CTRL = UEP_R_RES_ACK | UEP_T_RES_NAK | RB_UEP_AUTO_TOG;
    13ac:	4749                	li	a4,18
    13ae:	02e78323          	sb	a4,38(a5)
C:\Users\Astap\Desktop\CH583EVT\EVT\EXAM\BLE\Direct_Test_Mode\obj/../APP/app_usb.c:496
    R8_UEP2_CTRL = UEP_R_RES_ACK | UEP_T_RES_NAK | RB_UEP_AUTO_TOG;
    13b2:	02e78523          	sb	a4,42(a5)
C:\Users\Astap\Desktop\CH583EVT\EVT\EXAM\BLE\Direct_Test_Mode\obj/../APP/app_usb.c:497
    R8_UEP3_CTRL = UEP_R_RES_ACK | UEP_T_RES_NAK | RB_UEP_AUTO_TOG;
    13b6:	02e78723          	sb	a4,46(a5)
C:\Users\Astap\Desktop\CH583EVT\EVT\EXAM\BLE\Direct_Test_Mode\obj/../APP/app_usb.c:498
    R8_USB_INT_FG = RB_UIF_BUS_RST;
    13ba:	4705                	li	a4,1
C:\Users\Astap\Desktop\CH583EVT\EVT\EXAM\BLE\Direct_Test_Mode\obj/../APP/app_usb.c:514
    R8_USB_INT_FG = intflag;
    13bc:	00e78323          	sb	a4,6(a5)
    13c0:	8082                	ret
C:\Users\Astap\Desktop\CH583EVT\EVT\EXAM\BLE\Direct_Test_Mode\obj/../APP/app_usb.c:500
  else if ( intflag & RB_UIF_SUSPEND )
    13c2:	00477693          	andi	a3,a4,4
    13c6:	dafd                	beqz	a3,13bc <USB_DevTransProcess+0x490>
C:\Users\Astap\Desktop\CH583EVT\EVT\EXAM\BLE\Direct_Test_Mode\obj/../APP/app_usb.c:502
    if ( R8_USB_MIS_ST & RB_UMS_SUSPEND )
    13c8:	0057c703          	lbu	a4,5(a5)
C:\Users\Astap\Desktop\CH583EVT\EVT\EXAM\BLE\Direct_Test_Mode\obj/../APP/app_usb.c:510
    R8_USB_INT_FG = RB_UIF_SUSPEND;
    13cc:	4711                	li	a4,4
    13ce:	b7fd                	j	13bc <USB_DevTransProcess+0x490>

000013d0 <simple_buf_add>:
simple_buf_add():
C:\Users\Astap\Desktop\CH583EVT\EVT\EXAM\BLE\Direct_Test_Mode\obj/../APP/buf.c:56
 *
 * @return  none
 */
void *simple_buf_add(struct simple_buf *buf, size_t len)
{
	uint8_t *tail = buf->data + buf->len;
    13d0:	4110                	lw	a2,0(a0)
C:\Users\Astap\Desktop\CH583EVT\EVT\EXAM\BLE\Direct_Test_Mode\obj/../APP/buf.c:60

    SIMPLE_BUF_DBG("buf %p add len %ld\n", buf, len);

    if((buf->size - (buf->data - buf->__buf) - buf->len) < len)
    13d2:	4514                	lw	a3,8(a0)
    13d4:	00655783          	lhu	a5,6(a0)
C:\Users\Astap\Desktop\CH583EVT\EVT\EXAM\BLE\Direct_Test_Mode\obj/../APP/buf.c:56
	uint8_t *tail = buf->data + buf->len;
    13d8:	00455703          	lhu	a4,4(a0)
C:\Users\Astap\Desktop\CH583EVT\EVT\EXAM\BLE\Direct_Test_Mode\obj/../APP/buf.c:60
    if((buf->size - (buf->data - buf->__buf) - buf->len) < len)
    13dc:	40d606b3          	sub	a3,a2,a3
    13e0:	8f95                	sub	a5,a5,a3
    13e2:	8f99                	sub	a5,a5,a4
    13e4:	00b7f363          	bgeu	a5,a1,13ea <simple_buf_add+0x1a>
C:\Users\Astap\Desktop\CH583EVT\EVT\EXAM\BLE\Direct_Test_Mode\obj/../APP/buf.c:63 (discriminator 1)
    {
        SIMPLE_BUF_DBG("simple_buf_add: no memory\n");
        while(1);
    13e8:	a001                	j	13e8 <simple_buf_add+0x18>
C:\Users\Astap\Desktop\CH583EVT\EVT\EXAM\BLE\Direct_Test_Mode\obj/../APP/buf.c:66
    }

    buf->len += len;
    13ea:	95ba                	add	a1,a1,a4
    13ec:	00b51223          	sh	a1,4(a0)
C:\Users\Astap\Desktop\CH583EVT\EVT\EXAM\BLE\Direct_Test_Mode\obj/../APP/buf.c:69

    return tail;
}
    13f0:	00e60533          	add	a0,a2,a4
    13f4:	8082                	ret

000013f6 <simple_buf_add_u8>:
simple_buf_add_u8():
C:\Users\Astap\Desktop\CH583EVT\EVT\EXAM\BLE\Direct_Test_Mode\obj/../APP/buf.c:129
 *          val  -  the 8-bit unsigned integer to be added.
 *
 * @return  The function returns a pointer to the starting position of the added data.
 */
uint8_t *simple_buf_add_u8(struct simple_buf *buf, uint8_t val)
{
    13f6:	1141                	addi	sp,sp,-16
    13f8:	c422                	sw	s0,8(sp)
    13fa:	842e                	mv	s0,a1
C:\Users\Astap\Desktop\CH583EVT\EVT\EXAM\BLE\Direct_Test_Mode\obj/../APP/buf.c:134
	uint8_t *u8;

    SIMPLE_BUF_DBG("buf %p add val 0x%02x\n", buf, val);

	u8 = simple_buf_add(buf, 1);
    13fc:	4585                	li	a1,1
C:\Users\Astap\Desktop\CH583EVT\EVT\EXAM\BLE\Direct_Test_Mode\obj/../APP/buf.c:129
{
    13fe:	c606                	sw	ra,12(sp)
C:\Users\Astap\Desktop\CH583EVT\EVT\EXAM\BLE\Direct_Test_Mode\obj/../APP/buf.c:134
	u8 = simple_buf_add(buf, 1);
    1400:	3fc1                	jal	13d0 <simple_buf_add>
C:\Users\Astap\Desktop\CH583EVT\EVT\EXAM\BLE\Direct_Test_Mode\obj/../APP/buf.c:135
	*u8 = val;
    1402:	00850023          	sb	s0,0(a0)
C:\Users\Astap\Desktop\CH583EVT\EVT\EXAM\BLE\Direct_Test_Mode\obj/../APP/buf.c:138

	return u8;
}
    1406:	40b2                	lw	ra,12(sp)
    1408:	4422                	lw	s0,8(sp)
    140a:	0141                	addi	sp,sp,16
    140c:	8082                	ret

0000140e <main>:
main():
C:\Users\Astap\Desktop\CH583EVT\EVT\EXAM\BLE\Direct_Test_Mode\obj/../APP/main.c:56
 * @brief   主函数
 *
 * @return  none
 */
int main(void)
{
    140e:	1141                	addi	sp,sp,-16
C:\Users\Astap\Desktop\CH583EVT\EVT\EXAM\BLE\Direct_Test_Mode\obj/../APP/main.c:57
    SetSysClock(CLK_SOURCE_PLL_60MHz);
    1410:	04800513          	li	a0,72
C:\Users\Astap\Desktop\CH583EVT\EVT\EXAM\BLE\Direct_Test_Mode\obj/../APP/main.c:56
{
    1414:	c606                	sw	ra,12(sp)
    1416:	c422                	sw	s0,8(sp)
C:\Users\Astap\Desktop\CH583EVT\EVT\EXAM\BLE\Direct_Test_Mode\obj/../APP/main.c:57
    SetSysClock(CLK_SOURCE_PLL_60MHz);
    1418:	1ffff097          	auipc	ra,0x1ffff
    141c:	c7a080e7          	jalr	-902(ra) # 20000092 <SetSysClock>
C:\Users\Astap\Desktop\CH583EVT\EVT\EXAM\BLE\Direct_Test_Mode\obj/../APP/main.c:58
     GPIOA_ModeCfg(GPIO_Pin_All,GPIO_ModeOut_PP_20mA );//предварительно настравиваем все порты на нули
    1420:	4591                	li	a1,4
    1422:	557d                	li	a0,-1
    1424:	85bff0ef          	jal	ra,c7e <GPIOA_ModeCfg>
C:\Users\Astap\Desktop\CH583EVT\EVT\EXAM\BLE\Direct_Test_Mode\obj/../APP/main.c:59
     GPIOB_ModeCfg(GPIO_Pin_All,GPIO_ModeOut_PP_20mA );//предварительно настравиваем все порты на нули
    1428:	4591                	li	a1,4
    142a:	557d                	li	a0,-1
    142c:	38e5                	jal	d24 <GPIOB_ModeCfg>
C:\Users\Astap\Desktop\CH583EVT\EVT\EXAM\BLE\Direct_Test_Mode\obj/../APP/main.c:60
     GPIOA_ResetBits(GPIO_Pin_All);// обнуляем и проверяем что бы не было шума
    142e:	40001437          	lui	s0,0x40001
    1432:	0ac42783          	lw	a5,172(s0) # 400010ac <_eusrstack+0x1fff90ac>
C:\Users\Astap\Desktop\CH583EVT\EVT\EXAM\BLE\Direct_Test_Mode\obj/../APP/main.c:64
     GPIOB_ResetBits(GPIO_Pin_All);

     // Делаем UART1 с пинов PA8/PA9 на PB12/PB13 ( он же основной USB для прошивания)
      GPIOPinRemap(ENABLE , RB_PIN_UART1); // ремап UART1 с порта А на портB (см даташит)
    1436:	02000593          	li	a1,32
C:\Users\Astap\Desktop\CH583EVT\EVT\EXAM\BLE\Direct_Test_Mode\obj/../APP/main.c:60
     GPIOA_ResetBits(GPIO_Pin_All);// обнуляем и проверяем что бы не было шума
    143a:	57fd                	li	a5,-1
    143c:	0af42623          	sw	a5,172(s0)
C:\Users\Astap\Desktop\CH583EVT\EVT\EXAM\BLE\Direct_Test_Mode\obj/../APP/main.c:61
     GPIOB_ResetBits(GPIO_Pin_All);
    1440:	0cc42703          	lw	a4,204(s0)
C:\Users\Astap\Desktop\CH583EVT\EVT\EXAM\BLE\Direct_Test_Mode\obj/../APP/main.c:64
      GPIOPinRemap(ENABLE , RB_PIN_UART1); // ремап UART1 с порта А на портB (см даташит)
    1444:	4505                	li	a0,1
C:\Users\Astap\Desktop\CH583EVT\EVT\EXAM\BLE\Direct_Test_Mode\obj/../APP/main.c:61
     GPIOB_ResetBits(GPIO_Pin_All);
    1446:	0cf42623          	sw	a5,204(s0)
C:\Users\Astap\Desktop\CH583EVT\EVT\EXAM\BLE\Direct_Test_Mode\obj/../APP/main.c:64
      GPIOPinRemap(ENABLE , RB_PIN_UART1); // ремап UART1 с порта А на портB (см даташит)
    144a:	3241                	jal	dca <GPIOPinRemap>
C:\Users\Astap\Desktop\CH583EVT\EVT\EXAM\BLE\Direct_Test_Mode\obj/../APP/main.c:65
      GPIOB_ModeCfg(bRXD1, GPIO_ModeIN_PU);      // RXD-
    144c:	4585                	li	a1,1
    144e:	10000513          	li	a0,256
    1452:	38c9                	jal	d24 <GPIOB_ModeCfg>
C:\Users\Astap\Desktop\CH583EVT\EVT\EXAM\BLE\Direct_Test_Mode\obj/../APP/main.c:66
      GPIOB_SetBits(bTXD1);
    1454:	0c842783          	lw	a5,200(s0)
C:\Users\Astap\Desktop\CH583EVT\EVT\EXAM\BLE\Direct_Test_Mode\obj/../APP/main.c:67
      GPIOB_ModeCfg(bTXD1, GPIO_ModeOut_PP_20mA);// TXD-
    1458:	20000513          	li	a0,512
    145c:	4591                	li	a1,4
C:\Users\Astap\Desktop\CH583EVT\EVT\EXAM\BLE\Direct_Test_Mode\obj/../APP/main.c:66
      GPIOB_SetBits(bTXD1);
    145e:	2007e793          	ori	a5,a5,512
    1462:	0cf42423          	sw	a5,200(s0)
C:\Users\Astap\Desktop\CH583EVT\EVT\EXAM\BLE\Direct_Test_Mode\obj/../APP/main.c:67
      GPIOB_ModeCfg(bTXD1, GPIO_ModeOut_PP_20mA);// TXD-
    1466:	387d                	jal	d24 <GPIOB_ModeCfg>
C:\Users\Astap\Desktop\CH583EVT\EVT\EXAM\BLE\Direct_Test_Mode\obj/../APP/main.c:69

      UART1_DefInit();// MAX SPEED (800000/24 Mhz)
    1468:	3499                	jal	eae <UART1_DefInit>
C:\Users\Astap\Desktop\CH583EVT\EVT\EXAM\BLE\Direct_Test_Mode\obj/../APP/main.c:70
    PRINT("%s\n", VER_LIB);
    146a:	00001517          	auipc	a0,0x1
    146e:	c9e50513          	addi	a0,a0,-866 # 2108 <VER_LIB>
    1472:	224d                	jal	1614 <puts>
C:\Users\Astap\Desktop\CH583EVT\EVT\EXAM\BLE\Direct_Test_Mode\obj/../APP/main.c:73 (discriminator 1)


    while(1);
    1474:	a001                	j	1474 <main+0x66>

00001476 <atomic_set>:
atomic_set():
C:\Users\Astap\Desktop\CH583EVT\EVT\EXAM\BLE\Direct_Test_Mode\APP\include/atomic_builtin.h:176
    1476:	87ae                	mv	a5,a1
    1478:	0f50000f          	fence	iorw,ow
    147c:	0cf527af          	amoswap.w.aq	a5,a5,(a0)
C:\Users\Astap\Desktop\CH583EVT\EVT\EXAM\BLE\Direct_Test_Mode\APP\include/atomic_builtin.h:177
}
    1480:	853e                	mv	a0,a5
    1482:	8082                	ret

00001484 <memcpy>:
memcpy():
    1484:	00a5c7b3          	xor	a5,a1,a0
    1488:	8b8d                	andi	a5,a5,3
    148a:	00c50733          	add	a4,a0,a2
    148e:	e781                	bnez	a5,1496 <memcpy+0x12>
    1490:	478d                	li	a5,3
    1492:	00c7ee63          	bltu	a5,a2,14ae <memcpy+0x2a>
    1496:	87aa                	mv	a5,a0
    1498:	0ae57063          	bgeu	a0,a4,1538 <memcpy+0xb4>
    149c:	0005c683          	lbu	a3,0(a1)
    14a0:	0785                	addi	a5,a5,1
    14a2:	0585                	addi	a1,a1,1
    14a4:	fed78fa3          	sb	a3,-1(a5)
    14a8:	fee7eae3          	bltu	a5,a4,149c <memcpy+0x18>
    14ac:	8082                	ret
    14ae:	00357693          	andi	a3,a0,3
    14b2:	87aa                	mv	a5,a0
    14b4:	ca91                	beqz	a3,14c8 <memcpy+0x44>
    14b6:	0005c683          	lbu	a3,0(a1)
    14ba:	0785                	addi	a5,a5,1
    14bc:	0585                	addi	a1,a1,1
    14be:	fed78fa3          	sb	a3,-1(a5)
    14c2:	0037f693          	andi	a3,a5,3
    14c6:	b7fd                	j	14b4 <memcpy+0x30>
    14c8:	ffc77693          	andi	a3,a4,-4
    14cc:	fe068613          	addi	a2,a3,-32
    14d0:	06c7f063          	bgeu	a5,a2,1530 <memcpy+0xac>
    14d4:	0005a383          	lw	t2,0(a1)
    14d8:	0045a283          	lw	t0,4(a1)
    14dc:	0085af83          	lw	t6,8(a1)
    14e0:	00c5af03          	lw	t5,12(a1)
    14e4:	0105ae83          	lw	t4,16(a1)
    14e8:	0145ae03          	lw	t3,20(a1)
    14ec:	0185a303          	lw	t1,24(a1)
    14f0:	01c5a883          	lw	a7,28(a1)
    14f4:	02458593          	addi	a1,a1,36
    14f8:	0077a023          	sw	t2,0(a5)
    14fc:	ffc5a803          	lw	a6,-4(a1)
    1500:	0057a223          	sw	t0,4(a5)
    1504:	01f7a423          	sw	t6,8(a5)
    1508:	01e7a623          	sw	t5,12(a5)
    150c:	01d7a823          	sw	t4,16(a5)
    1510:	01c7aa23          	sw	t3,20(a5)
    1514:	0067ac23          	sw	t1,24(a5)
    1518:	0117ae23          	sw	a7,28(a5)
    151c:	02478793          	addi	a5,a5,36
    1520:	ff07ae23          	sw	a6,-4(a5)
    1524:	b775                	j	14d0 <memcpy+0x4c>
    1526:	4190                	lw	a2,0(a1)
    1528:	0791                	addi	a5,a5,4
    152a:	0591                	addi	a1,a1,4
    152c:	fec7ae23          	sw	a2,-4(a5)
    1530:	fed7ebe3          	bltu	a5,a3,1526 <memcpy+0xa2>
    1534:	f6e7e4e3          	bltu	a5,a4,149c <memcpy+0x18>
    1538:	8082                	ret

0000153a <_puts_r>:
_puts_r():
    153a:	1101                	addi	sp,sp,-32
    153c:	ca26                	sw	s1,20(sp)
    153e:	c84a                	sw	s2,16(sp)
    1540:	ce06                	sw	ra,28(sp)
    1542:	cc22                	sw	s0,24(sp)
    1544:	c64e                	sw	s3,12(sp)
    1546:	c452                	sw	s4,8(sp)
    1548:	84aa                	mv	s1,a0
    154a:	892e                	mv	s2,a1
    154c:	c501                	beqz	a0,1554 <_puts_r+0x1a>
    154e:	4d1c                	lw	a5,24(a0)
    1550:	e391                	bnez	a5,1554 <_puts_r+0x1a>
    1552:	29ed                	jal	1a4c <__sinit>
    1554:	4c9c                	lw	a5,24(s1)
    1556:	4480                	lw	s0,8(s1)
    1558:	e399                	bnez	a5,155e <_puts_r+0x24>
    155a:	8526                	mv	a0,s1
    155c:	29c5                	jal	1a4c <__sinit>
    155e:	00001797          	auipc	a5,0x1
    1562:	bde78793          	addi	a5,a5,-1058 # 213c <__sf_fake_stdin>
    1566:	02f41c63          	bne	s0,a5,159e <_puts_r+0x64>
    156a:	40c0                	lw	s0,4(s1)
    156c:	00c45783          	lhu	a5,12(s0)
    1570:	8ba1                	andi	a5,a5,8
    1572:	c7b1                	beqz	a5,15be <_puts_r+0x84>
    1574:	481c                	lw	a5,16(s0)
    1576:	c7a1                	beqz	a5,15be <_puts_r+0x84>
    1578:	59fd                	li	s3,-1
    157a:	4a29                	li	s4,10
    157c:	441c                	lw	a5,8(s0)
    157e:	00094583          	lbu	a1,0(s2)
    1582:	17fd                	addi	a5,a5,-1
    1584:	e9b1                	bnez	a1,15d8 <_puts_r+0x9e>
    1586:	c41c                	sw	a5,8(s0)
    1588:	0607de63          	bgez	a5,1604 <_puts_r+0xca>
    158c:	8622                	mv	a2,s0
    158e:	45a9                	li	a1,10
    1590:	8526                	mv	a0,s1
    1592:	2841                	jal	1622 <__swbuf_r>
    1594:	57fd                	li	a5,-1
    1596:	02f50863          	beq	a0,a5,15c6 <_puts_r+0x8c>
    159a:	4529                	li	a0,10
    159c:	a035                	j	15c8 <_puts_r+0x8e>
    159e:	00001797          	auipc	a5,0x1
    15a2:	bbe78793          	addi	a5,a5,-1090 # 215c <__sf_fake_stdout>
    15a6:	00f41463          	bne	s0,a5,15ae <_puts_r+0x74>
    15aa:	4480                	lw	s0,8(s1)
    15ac:	b7c1                	j	156c <_puts_r+0x32>
    15ae:	00001797          	auipc	a5,0x1
    15b2:	b6e78793          	addi	a5,a5,-1170 # 211c <__sf_fake_stderr>
    15b6:	faf41be3          	bne	s0,a5,156c <_puts_r+0x32>
    15ba:	44c0                	lw	s0,12(s1)
    15bc:	bf45                	j	156c <_puts_r+0x32>
    15be:	85a2                	mv	a1,s0
    15c0:	8526                	mv	a0,s1
    15c2:	2205                	jal	16e2 <__swsetup_r>
    15c4:	d955                	beqz	a0,1578 <_puts_r+0x3e>
    15c6:	557d                	li	a0,-1
    15c8:	40f2                	lw	ra,28(sp)
    15ca:	4462                	lw	s0,24(sp)
    15cc:	44d2                	lw	s1,20(sp)
    15ce:	4942                	lw	s2,16(sp)
    15d0:	49b2                	lw	s3,12(sp)
    15d2:	4a22                	lw	s4,8(sp)
    15d4:	6105                	addi	sp,sp,32
    15d6:	8082                	ret
    15d8:	c41c                	sw	a5,8(s0)
    15da:	0905                	addi	s2,s2,1
    15dc:	0007d763          	bgez	a5,15ea <_puts_r+0xb0>
    15e0:	4c18                	lw	a4,24(s0)
    15e2:	00e7cb63          	blt	a5,a4,15f8 <_puts_r+0xbe>
    15e6:	01458963          	beq	a1,s4,15f8 <_puts_r+0xbe>
    15ea:	401c                	lw	a5,0(s0)
    15ec:	00178713          	addi	a4,a5,1
    15f0:	c018                	sw	a4,0(s0)
    15f2:	00b78023          	sb	a1,0(a5)
    15f6:	b759                	j	157c <_puts_r+0x42>
    15f8:	8622                	mv	a2,s0
    15fa:	8526                	mv	a0,s1
    15fc:	201d                	jal	1622 <__swbuf_r>
    15fe:	f7351fe3          	bne	a0,s3,157c <_puts_r+0x42>
    1602:	b7d1                	j	15c6 <_puts_r+0x8c>
    1604:	401c                	lw	a5,0(s0)
    1606:	00178713          	addi	a4,a5,1
    160a:	c018                	sw	a4,0(s0)
    160c:	4729                	li	a4,10
    160e:	00e78023          	sb	a4,0(a5)
    1612:	b761                	j	159a <_puts_r+0x60>

00001614 <puts>:
puts():
    1614:	1ffff797          	auipc	a5,0x1ffff
    1618:	57878793          	addi	a5,a5,1400 # 20000b8c <_impure_ptr>
    161c:	85aa                	mv	a1,a0
    161e:	4388                	lw	a0,0(a5)
    1620:	bf29                	j	153a <_puts_r>

00001622 <__swbuf_r>:
__swbuf_r():
    1622:	1101                	addi	sp,sp,-32
    1624:	cc22                	sw	s0,24(sp)
    1626:	ca26                	sw	s1,20(sp)
    1628:	c84a                	sw	s2,16(sp)
    162a:	ce06                	sw	ra,28(sp)
    162c:	c64e                	sw	s3,12(sp)
    162e:	84aa                	mv	s1,a0
    1630:	892e                	mv	s2,a1
    1632:	8432                	mv	s0,a2
    1634:	c501                	beqz	a0,163c <__swbuf_r+0x1a>
    1636:	4d1c                	lw	a5,24(a0)
    1638:	e391                	bnez	a5,163c <__swbuf_r+0x1a>
    163a:	2909                	jal	1a4c <__sinit>
    163c:	00001797          	auipc	a5,0x1
    1640:	b0078793          	addi	a5,a5,-1280 # 213c <__sf_fake_stdin>
    1644:	06f41963          	bne	s0,a5,16b6 <__swbuf_r+0x94>
    1648:	40c0                	lw	s0,4(s1)
    164a:	4c1c                	lw	a5,24(s0)
    164c:	c41c                	sw	a5,8(s0)
    164e:	00c45783          	lhu	a5,12(s0)
    1652:	8ba1                	andi	a5,a5,8
    1654:	c3c9                	beqz	a5,16d6 <__swbuf_r+0xb4>
    1656:	481c                	lw	a5,16(s0)
    1658:	cfbd                	beqz	a5,16d6 <__swbuf_r+0xb4>
    165a:	481c                	lw	a5,16(s0)
    165c:	4008                	lw	a0,0(s0)
    165e:	0ff97993          	andi	s3,s2,255
    1662:	0ff97913          	andi	s2,s2,255
    1666:	8d1d                	sub	a0,a0,a5
    1668:	485c                	lw	a5,20(s0)
    166a:	00f54663          	blt	a0,a5,1676 <__swbuf_r+0x54>
    166e:	85a2                	mv	a1,s0
    1670:	8526                	mv	a0,s1
    1672:	2c75                	jal	192e <_fflush_r>
    1674:	e52d                	bnez	a0,16de <__swbuf_r+0xbc>
    1676:	441c                	lw	a5,8(s0)
    1678:	0505                	addi	a0,a0,1
    167a:	17fd                	addi	a5,a5,-1
    167c:	c41c                	sw	a5,8(s0)
    167e:	401c                	lw	a5,0(s0)
    1680:	00178713          	addi	a4,a5,1
    1684:	c018                	sw	a4,0(s0)
    1686:	01378023          	sb	s3,0(a5)
    168a:	485c                	lw	a5,20(s0)
    168c:	00a78963          	beq	a5,a0,169e <__swbuf_r+0x7c>
    1690:	00c45783          	lhu	a5,12(s0)
    1694:	8b85                	andi	a5,a5,1
    1696:	cb81                	beqz	a5,16a6 <__swbuf_r+0x84>
    1698:	47a9                	li	a5,10
    169a:	00f91663          	bne	s2,a5,16a6 <__swbuf_r+0x84>
    169e:	85a2                	mv	a1,s0
    16a0:	8526                	mv	a0,s1
    16a2:	2471                	jal	192e <_fflush_r>
    16a4:	ed0d                	bnez	a0,16de <__swbuf_r+0xbc>
    16a6:	40f2                	lw	ra,28(sp)
    16a8:	4462                	lw	s0,24(sp)
    16aa:	854a                	mv	a0,s2
    16ac:	44d2                	lw	s1,20(sp)
    16ae:	4942                	lw	s2,16(sp)
    16b0:	49b2                	lw	s3,12(sp)
    16b2:	6105                	addi	sp,sp,32
    16b4:	8082                	ret
    16b6:	00001797          	auipc	a5,0x1
    16ba:	aa678793          	addi	a5,a5,-1370 # 215c <__sf_fake_stdout>
    16be:	00f41463          	bne	s0,a5,16c6 <__swbuf_r+0xa4>
    16c2:	4480                	lw	s0,8(s1)
    16c4:	b759                	j	164a <__swbuf_r+0x28>
    16c6:	00001797          	auipc	a5,0x1
    16ca:	a5678793          	addi	a5,a5,-1450 # 211c <__sf_fake_stderr>
    16ce:	f6f41ee3          	bne	s0,a5,164a <__swbuf_r+0x28>
    16d2:	44c0                	lw	s0,12(s1)
    16d4:	bf9d                	j	164a <__swbuf_r+0x28>
    16d6:	85a2                	mv	a1,s0
    16d8:	8526                	mv	a0,s1
    16da:	2021                	jal	16e2 <__swsetup_r>
    16dc:	dd3d                	beqz	a0,165a <__swbuf_r+0x38>
    16de:	597d                	li	s2,-1
    16e0:	b7d9                	j	16a6 <__swbuf_r+0x84>

000016e2 <__swsetup_r>:
__swsetup_r():
    16e2:	1141                	addi	sp,sp,-16
    16e4:	1ffff797          	auipc	a5,0x1ffff
    16e8:	4a878793          	addi	a5,a5,1192 # 20000b8c <_impure_ptr>
    16ec:	c226                	sw	s1,4(sp)
    16ee:	4384                	lw	s1,0(a5)
    16f0:	c422                	sw	s0,8(sp)
    16f2:	c04a                	sw	s2,0(sp)
    16f4:	c606                	sw	ra,12(sp)
    16f6:	892a                	mv	s2,a0
    16f8:	842e                	mv	s0,a1
    16fa:	c489                	beqz	s1,1704 <__swsetup_r+0x22>
    16fc:	4c9c                	lw	a5,24(s1)
    16fe:	e399                	bnez	a5,1704 <__swsetup_r+0x22>
    1700:	8526                	mv	a0,s1
    1702:	26a9                	jal	1a4c <__sinit>
    1704:	00001797          	auipc	a5,0x1
    1708:	a3878793          	addi	a5,a5,-1480 # 213c <__sf_fake_stdin>
    170c:	02f41c63          	bne	s0,a5,1744 <__swsetup_r+0x62>
    1710:	40c0                	lw	s0,4(s1)
    1712:	00c41703          	lh	a4,12(s0)
    1716:	01071793          	slli	a5,a4,0x10
    171a:	83c1                	srli	a5,a5,0x10
    171c:	0087f693          	andi	a3,a5,8
    1720:	eeb5                	bnez	a3,179c <__swsetup_r+0xba>
    1722:	0107f693          	andi	a3,a5,16
    1726:	ee9d                	bnez	a3,1764 <__swsetup_r+0x82>
    1728:	47a5                	li	a5,9
    172a:	00f92023          	sw	a5,0(s2)
    172e:	04076713          	ori	a4,a4,64
    1732:	00e41623          	sh	a4,12(s0)
    1736:	557d                	li	a0,-1
    1738:	40b2                	lw	ra,12(sp)
    173a:	4422                	lw	s0,8(sp)
    173c:	4492                	lw	s1,4(sp)
    173e:	4902                	lw	s2,0(sp)
    1740:	0141                	addi	sp,sp,16
    1742:	8082                	ret
    1744:	00001797          	auipc	a5,0x1
    1748:	a1878793          	addi	a5,a5,-1512 # 215c <__sf_fake_stdout>
    174c:	00f41463          	bne	s0,a5,1754 <__swsetup_r+0x72>
    1750:	4480                	lw	s0,8(s1)
    1752:	b7c1                	j	1712 <__swsetup_r+0x30>
    1754:	00001797          	auipc	a5,0x1
    1758:	9c878793          	addi	a5,a5,-1592 # 211c <__sf_fake_stderr>
    175c:	faf41be3          	bne	s0,a5,1712 <__swsetup_r+0x30>
    1760:	44c0                	lw	s0,12(s1)
    1762:	bf45                	j	1712 <__swsetup_r+0x30>
    1764:	8b91                	andi	a5,a5,4
    1766:	c78d                	beqz	a5,1790 <__swsetup_r+0xae>
    1768:	584c                	lw	a1,52(s0)
    176a:	c989                	beqz	a1,177c <__swsetup_r+0x9a>
    176c:	04440793          	addi	a5,s0,68
    1770:	00f58463          	beq	a1,a5,1778 <__swsetup_r+0x96>
    1774:	854a                	mv	a0,s2
    1776:	2381                	jal	1cb6 <_free_r>
    1778:	02042a23          	sw	zero,52(s0)
    177c:	00c45783          	lhu	a5,12(s0)
    1780:	00042223          	sw	zero,4(s0)
    1784:	fdb7f793          	andi	a5,a5,-37
    1788:	00f41623          	sh	a5,12(s0)
    178c:	481c                	lw	a5,16(s0)
    178e:	c01c                	sw	a5,0(s0)
    1790:	00c45783          	lhu	a5,12(s0)
    1794:	0087e793          	ori	a5,a5,8
    1798:	00f41623          	sh	a5,12(s0)
    179c:	481c                	lw	a5,16(s0)
    179e:	ef81                	bnez	a5,17b6 <__swsetup_r+0xd4>
    17a0:	00c45783          	lhu	a5,12(s0)
    17a4:	20000713          	li	a4,512
    17a8:	2807f793          	andi	a5,a5,640
    17ac:	00e78563          	beq	a5,a4,17b6 <__swsetup_r+0xd4>
    17b0:	85a2                	mv	a1,s0
    17b2:	854a                	mv	a0,s2
    17b4:	219d                	jal	1c1a <__smakebuf_r>
    17b6:	00c45783          	lhu	a5,12(s0)
    17ba:	0017f713          	andi	a4,a5,1
    17be:	c705                	beqz	a4,17e6 <__swsetup_r+0x104>
    17c0:	485c                	lw	a5,20(s0)
    17c2:	00042423          	sw	zero,8(s0)
    17c6:	40f007b3          	neg	a5,a5
    17ca:	cc1c                	sw	a5,24(s0)
    17cc:	481c                	lw	a5,16(s0)
    17ce:	4501                	li	a0,0
    17d0:	f7a5                	bnez	a5,1738 <__swsetup_r+0x56>
    17d2:	00c41783          	lh	a5,12(s0)
    17d6:	0807f713          	andi	a4,a5,128
    17da:	df39                	beqz	a4,1738 <__swsetup_r+0x56>
    17dc:	0407e793          	ori	a5,a5,64
    17e0:	00f41623          	sh	a5,12(s0)
    17e4:	bf89                	j	1736 <__swsetup_r+0x54>
    17e6:	8b89                	andi	a5,a5,2
    17e8:	4701                	li	a4,0
    17ea:	e391                	bnez	a5,17ee <__swsetup_r+0x10c>
    17ec:	4858                	lw	a4,20(s0)
    17ee:	c418                	sw	a4,8(s0)
    17f0:	bff1                	j	17cc <__swsetup_r+0xea>

000017f2 <__sflush_r>:
__sflush_r():
    17f2:	00c5d783          	lhu	a5,12(a1)
    17f6:	1101                	addi	sp,sp,-32
    17f8:	cc22                	sw	s0,24(sp)
    17fa:	ca26                	sw	s1,20(sp)
    17fc:	ce06                	sw	ra,28(sp)
    17fe:	c84a                	sw	s2,16(sp)
    1800:	c64e                	sw	s3,12(sp)
    1802:	0087f713          	andi	a4,a5,8
    1806:	84aa                	mv	s1,a0
    1808:	842e                	mv	s0,a1
    180a:	ef71                	bnez	a4,18e6 <__sflush_r+0xf4>
    180c:	41d8                	lw	a4,4(a1)
    180e:	00e04d63          	bgtz	a4,1828 <__sflush_r+0x36>
    1812:	41b8                	lw	a4,64(a1)
    1814:	00e04a63          	bgtz	a4,1828 <__sflush_r+0x36>
    1818:	4501                	li	a0,0
    181a:	40f2                	lw	ra,28(sp)
    181c:	4462                	lw	s0,24(sp)
    181e:	44d2                	lw	s1,20(sp)
    1820:	4942                	lw	s2,16(sp)
    1822:	49b2                	lw	s3,12(sp)
    1824:	6105                	addi	sp,sp,32
    1826:	8082                	ret
    1828:	5458                	lw	a4,44(s0)
    182a:	d77d                	beqz	a4,1818 <__sflush_r+0x26>
    182c:	0004a903          	lw	s2,0(s1)
    1830:	01379693          	slli	a3,a5,0x13
    1834:	0004a023          	sw	zero,0(s1)
    1838:	0606dd63          	bgez	a3,18b2 <__sflush_r+0xc0>
    183c:	4870                	lw	a2,84(s0)
    183e:	00c45783          	lhu	a5,12(s0)
    1842:	8b91                	andi	a5,a5,4
    1844:	c799                	beqz	a5,1852 <__sflush_r+0x60>
    1846:	405c                	lw	a5,4(s0)
    1848:	8e1d                	sub	a2,a2,a5
    184a:	585c                	lw	a5,52(s0)
    184c:	c399                	beqz	a5,1852 <__sflush_r+0x60>
    184e:	403c                	lw	a5,64(s0)
    1850:	8e1d                	sub	a2,a2,a5
    1852:	545c                	lw	a5,44(s0)
    1854:	500c                	lw	a1,32(s0)
    1856:	4681                	li	a3,0
    1858:	8526                	mv	a0,s1
    185a:	9782                	jalr	a5
    185c:	57fd                	li	a5,-1
    185e:	00c45703          	lhu	a4,12(s0)
    1862:	00f51d63          	bne	a0,a5,187c <__sflush_r+0x8a>
    1866:	4094                	lw	a3,0(s1)
    1868:	47f5                	li	a5,29
    186a:	06d7e863          	bltu	a5,a3,18da <__sflush_r+0xe8>
    186e:	204007b7          	lui	a5,0x20400
    1872:	0785                	addi	a5,a5,1
    1874:	00d7d7b3          	srl	a5,a5,a3
    1878:	8b85                	andi	a5,a5,1
    187a:	c3a5                	beqz	a5,18da <__sflush_r+0xe8>
    187c:	481c                	lw	a5,16(s0)
    187e:	00042223          	sw	zero,4(s0)
    1882:	c01c                	sw	a5,0(s0)
    1884:	01371793          	slli	a5,a4,0x13
    1888:	0007d863          	bgez	a5,1898 <__sflush_r+0xa6>
    188c:	57fd                	li	a5,-1
    188e:	00f51463          	bne	a0,a5,1896 <__sflush_r+0xa4>
    1892:	409c                	lw	a5,0(s1)
    1894:	e391                	bnez	a5,1898 <__sflush_r+0xa6>
    1896:	c868                	sw	a0,84(s0)
    1898:	584c                	lw	a1,52(s0)
    189a:	0124a023          	sw	s2,0(s1)
    189e:	ddad                	beqz	a1,1818 <__sflush_r+0x26>
    18a0:	04440793          	addi	a5,s0,68
    18a4:	00f58463          	beq	a1,a5,18ac <__sflush_r+0xba>
    18a8:	8526                	mv	a0,s1
    18aa:	2131                	jal	1cb6 <_free_r>
    18ac:	02042a23          	sw	zero,52(s0)
    18b0:	b7a5                	j	1818 <__sflush_r+0x26>
    18b2:	500c                	lw	a1,32(s0)
    18b4:	4601                	li	a2,0
    18b6:	4685                	li	a3,1
    18b8:	8526                	mv	a0,s1
    18ba:	9702                	jalr	a4
    18bc:	57fd                	li	a5,-1
    18be:	862a                	mv	a2,a0
    18c0:	f6f51fe3          	bne	a0,a5,183e <__sflush_r+0x4c>
    18c4:	409c                	lw	a5,0(s1)
    18c6:	dfa5                	beqz	a5,183e <__sflush_r+0x4c>
    18c8:	4775                	li	a4,29
    18ca:	00e78563          	beq	a5,a4,18d4 <__sflush_r+0xe2>
    18ce:	4759                	li	a4,22
    18d0:	04e79463          	bne	a5,a4,1918 <__sflush_r+0x126>
    18d4:	0124a023          	sw	s2,0(s1)
    18d8:	b781                	j	1818 <__sflush_r+0x26>
    18da:	04076713          	ori	a4,a4,64
    18de:	00e41623          	sh	a4,12(s0)
    18e2:	557d                	li	a0,-1
    18e4:	bf1d                	j	181a <__sflush_r+0x28>
    18e6:	0105a983          	lw	s3,16(a1)
    18ea:	f20987e3          	beqz	s3,1818 <__sflush_r+0x26>
    18ee:	0005a903          	lw	s2,0(a1)
    18f2:	8b8d                	andi	a5,a5,3
    18f4:	0135a023          	sw	s3,0(a1)
    18f8:	41390933          	sub	s2,s2,s3
    18fc:	4701                	li	a4,0
    18fe:	e391                	bnez	a5,1902 <__sflush_r+0x110>
    1900:	49d8                	lw	a4,20(a1)
    1902:	c418                	sw	a4,8(s0)
    1904:	f1205ae3          	blez	s2,1818 <__sflush_r+0x26>
    1908:	541c                	lw	a5,40(s0)
    190a:	500c                	lw	a1,32(s0)
    190c:	86ca                	mv	a3,s2
    190e:	864e                	mv	a2,s3
    1910:	8526                	mv	a0,s1
    1912:	9782                	jalr	a5
    1914:	00a04963          	bgtz	a0,1926 <__sflush_r+0x134>
    1918:	00c45783          	lhu	a5,12(s0)
    191c:	0407e793          	ori	a5,a5,64
    1920:	00f41623          	sh	a5,12(s0)
    1924:	bf7d                	j	18e2 <__sflush_r+0xf0>
    1926:	99aa                	add	s3,s3,a0
    1928:	40a90933          	sub	s2,s2,a0
    192c:	bfe1                	j	1904 <__sflush_r+0x112>

0000192e <_fflush_r>:
_fflush_r():
    192e:	499c                	lw	a5,16(a1)
    1930:	cfb9                	beqz	a5,198e <_fflush_r+0x60>
    1932:	1101                	addi	sp,sp,-32
    1934:	cc22                	sw	s0,24(sp)
    1936:	ce06                	sw	ra,28(sp)
    1938:	842a                	mv	s0,a0
    193a:	c511                	beqz	a0,1946 <_fflush_r+0x18>
    193c:	4d1c                	lw	a5,24(a0)
    193e:	e781                	bnez	a5,1946 <_fflush_r+0x18>
    1940:	c62e                	sw	a1,12(sp)
    1942:	2229                	jal	1a4c <__sinit>
    1944:	45b2                	lw	a1,12(sp)
    1946:	00000797          	auipc	a5,0x0
    194a:	7f678793          	addi	a5,a5,2038 # 213c <__sf_fake_stdin>
    194e:	00f59b63          	bne	a1,a5,1964 <_fflush_r+0x36>
    1952:	404c                	lw	a1,4(s0)
    1954:	00c59783          	lh	a5,12(a1)
    1958:	c795                	beqz	a5,1984 <_fflush_r+0x56>
    195a:	8522                	mv	a0,s0
    195c:	4462                	lw	s0,24(sp)
    195e:	40f2                	lw	ra,28(sp)
    1960:	6105                	addi	sp,sp,32
    1962:	bd41                	j	17f2 <__sflush_r>
    1964:	00000797          	auipc	a5,0x0
    1968:	7f878793          	addi	a5,a5,2040 # 215c <__sf_fake_stdout>
    196c:	00f59463          	bne	a1,a5,1974 <_fflush_r+0x46>
    1970:	440c                	lw	a1,8(s0)
    1972:	b7cd                	j	1954 <_fflush_r+0x26>
    1974:	00000797          	auipc	a5,0x0
    1978:	7a878793          	addi	a5,a5,1960 # 211c <__sf_fake_stderr>
    197c:	fcf59ce3          	bne	a1,a5,1954 <_fflush_r+0x26>
    1980:	444c                	lw	a1,12(s0)
    1982:	bfc9                	j	1954 <_fflush_r+0x26>
    1984:	40f2                	lw	ra,28(sp)
    1986:	4462                	lw	s0,24(sp)
    1988:	4501                	li	a0,0
    198a:	6105                	addi	sp,sp,32
    198c:	8082                	ret
    198e:	4501                	li	a0,0
    1990:	8082                	ret

00001992 <std>:
std():
    1992:	1141                	addi	sp,sp,-16
    1994:	c422                	sw	s0,8(sp)
    1996:	c606                	sw	ra,12(sp)
    1998:	842a                	mv	s0,a0
    199a:	00b51623          	sh	a1,12(a0)
    199e:	00c51723          	sh	a2,14(a0)
    19a2:	00052023          	sw	zero,0(a0)
    19a6:	00052223          	sw	zero,4(a0)
    19aa:	00052423          	sw	zero,8(a0)
    19ae:	06052223          	sw	zero,100(a0)
    19b2:	00052823          	sw	zero,16(a0)
    19b6:	00052a23          	sw	zero,20(a0)
    19ba:	00052c23          	sw	zero,24(a0)
    19be:	4621                	li	a2,8
    19c0:	4581                	li	a1,0
    19c2:	05c50513          	addi	a0,a0,92
    19c6:	a10ff0ef          	jal	ra,bd6 <memset>
    19ca:	00000797          	auipc	a5,0x0
    19ce:	48878793          	addi	a5,a5,1160 # 1e52 <__sread>
    19d2:	d05c                	sw	a5,36(s0)
    19d4:	00000797          	auipc	a5,0x0
    19d8:	4ae78793          	addi	a5,a5,1198 # 1e82 <__swrite>
    19dc:	d41c                	sw	a5,40(s0)
    19de:	00000797          	auipc	a5,0x0
    19e2:	4f278793          	addi	a5,a5,1266 # 1ed0 <__sseek>
    19e6:	d45c                	sw	a5,44(s0)
    19e8:	00000797          	auipc	a5,0x0
    19ec:	51e78793          	addi	a5,a5,1310 # 1f06 <__sclose>
    19f0:	d000                	sw	s0,32(s0)
    19f2:	d81c                	sw	a5,48(s0)
    19f4:	40b2                	lw	ra,12(sp)
    19f6:	4422                	lw	s0,8(sp)
    19f8:	0141                	addi	sp,sp,16
    19fa:	8082                	ret

000019fc <_cleanup_r>:
_cleanup_r():
    19fc:	00000597          	auipc	a1,0x0
    1a00:	f3258593          	addi	a1,a1,-206 # 192e <_fflush_r>
    1a04:	aa89                	j	1b56 <_fwalk_reent>

00001a06 <__sfmoreglue>:
__sfmoreglue():
    1a06:	1141                	addi	sp,sp,-16
    1a08:	c226                	sw	s1,4(sp)
    1a0a:	06800613          	li	a2,104
    1a0e:	fff58493          	addi	s1,a1,-1
    1a12:	02c484b3          	mul	s1,s1,a2
    1a16:	c04a                	sw	s2,0(sp)
    1a18:	892e                	mv	s2,a1
    1a1a:	c422                	sw	s0,8(sp)
    1a1c:	c606                	sw	ra,12(sp)
    1a1e:	07448593          	addi	a1,s1,116
    1a22:	2e25                	jal	1d5a <_malloc_r>
    1a24:	842a                	mv	s0,a0
    1a26:	cd01                	beqz	a0,1a3e <__sfmoreglue+0x38>
    1a28:	00052023          	sw	zero,0(a0)
    1a2c:	01252223          	sw	s2,4(a0)
    1a30:	0531                	addi	a0,a0,12
    1a32:	c408                	sw	a0,8(s0)
    1a34:	06848613          	addi	a2,s1,104
    1a38:	4581                	li	a1,0
    1a3a:	99cff0ef          	jal	ra,bd6 <memset>
    1a3e:	8522                	mv	a0,s0
    1a40:	40b2                	lw	ra,12(sp)
    1a42:	4422                	lw	s0,8(sp)
    1a44:	4492                	lw	s1,4(sp)
    1a46:	4902                	lw	s2,0(sp)
    1a48:	0141                	addi	sp,sp,16
    1a4a:	8082                	ret

00001a4c <__sinit>:
__sinit():
    1a4c:	4d1c                	lw	a5,24(a0)
    1a4e:	e3bd                	bnez	a5,1ab4 <__sinit+0x68>
    1a50:	1141                	addi	sp,sp,-16
    1a52:	c606                	sw	ra,12(sp)
    1a54:	c422                	sw	s0,8(sp)
    1a56:	00000797          	auipc	a5,0x0
    1a5a:	fa678793          	addi	a5,a5,-90 # 19fc <_cleanup_r>
    1a5e:	d51c                	sw	a5,40(a0)
    1a60:	00000797          	auipc	a5,0x0
    1a64:	72c78793          	addi	a5,a5,1836 # 218c <_global_impure_ptr>
    1a68:	439c                	lw	a5,0(a5)
    1a6a:	04052423          	sw	zero,72(a0)
    1a6e:	04052623          	sw	zero,76(a0)
    1a72:	04052823          	sw	zero,80(a0)
    1a76:	00f51463          	bne	a0,a5,1a7e <__sinit+0x32>
    1a7a:	4785                	li	a5,1
    1a7c:	cd1c                	sw	a5,24(a0)
    1a7e:	842a                	mv	s0,a0
    1a80:	281d                	jal	1ab6 <__sfp>
    1a82:	c048                	sw	a0,4(s0)
    1a84:	8522                	mv	a0,s0
    1a86:	2805                	jal	1ab6 <__sfp>
    1a88:	c408                	sw	a0,8(s0)
    1a8a:	8522                	mv	a0,s0
    1a8c:	202d                	jal	1ab6 <__sfp>
    1a8e:	c448                	sw	a0,12(s0)
    1a90:	4048                	lw	a0,4(s0)
    1a92:	4601                	li	a2,0
    1a94:	4591                	li	a1,4
    1a96:	3df5                	jal	1992 <std>
    1a98:	4408                	lw	a0,8(s0)
    1a9a:	4605                	li	a2,1
    1a9c:	45a5                	li	a1,9
    1a9e:	3dd5                	jal	1992 <std>
    1aa0:	4448                	lw	a0,12(s0)
    1aa2:	4609                	li	a2,2
    1aa4:	45c9                	li	a1,18
    1aa6:	35f5                	jal	1992 <std>
    1aa8:	4785                	li	a5,1
    1aaa:	cc1c                	sw	a5,24(s0)
    1aac:	40b2                	lw	ra,12(sp)
    1aae:	4422                	lw	s0,8(sp)
    1ab0:	0141                	addi	sp,sp,16
    1ab2:	8082                	ret
    1ab4:	8082                	ret

00001ab6 <__sfp>:
__sfp():
    1ab6:	1141                	addi	sp,sp,-16
    1ab8:	00000797          	auipc	a5,0x0
    1abc:	6d478793          	addi	a5,a5,1748 # 218c <_global_impure_ptr>
    1ac0:	c226                	sw	s1,4(sp)
    1ac2:	4384                	lw	s1,0(a5)
    1ac4:	c04a                	sw	s2,0(sp)
    1ac6:	c606                	sw	ra,12(sp)
    1ac8:	4c9c                	lw	a5,24(s1)
    1aca:	c422                	sw	s0,8(sp)
    1acc:	892a                	mv	s2,a0
    1ace:	e399                	bnez	a5,1ad4 <__sfp+0x1e>
    1ad0:	8526                	mv	a0,s1
    1ad2:	3fad                	jal	1a4c <__sinit>
    1ad4:	04848493          	addi	s1,s1,72
    1ad8:	4480                	lw	s0,8(s1)
    1ada:	40dc                	lw	a5,4(s1)
    1adc:	17fd                	addi	a5,a5,-1
    1ade:	0007d663          	bgez	a5,1aea <__sfp+0x34>
    1ae2:	409c                	lw	a5,0(s1)
    1ae4:	cfb9                	beqz	a5,1b42 <__sfp+0x8c>
    1ae6:	4084                	lw	s1,0(s1)
    1ae8:	bfc5                	j	1ad8 <__sfp+0x22>
    1aea:	00c41703          	lh	a4,12(s0)
    1aee:	e739                	bnez	a4,1b3c <__sfp+0x86>
    1af0:	77c1                	lui	a5,0xffff0
    1af2:	0785                	addi	a5,a5,1
    1af4:	06042223          	sw	zero,100(s0)
    1af8:	00042023          	sw	zero,0(s0)
    1afc:	00042223          	sw	zero,4(s0)
    1b00:	00042423          	sw	zero,8(s0)
    1b04:	c45c                	sw	a5,12(s0)
    1b06:	00042823          	sw	zero,16(s0)
    1b0a:	00042a23          	sw	zero,20(s0)
    1b0e:	00042c23          	sw	zero,24(s0)
    1b12:	4621                	li	a2,8
    1b14:	4581                	li	a1,0
    1b16:	05c40513          	addi	a0,s0,92
    1b1a:	8bcff0ef          	jal	ra,bd6 <memset>
    1b1e:	02042a23          	sw	zero,52(s0)
    1b22:	02042c23          	sw	zero,56(s0)
    1b26:	04042423          	sw	zero,72(s0)
    1b2a:	04042623          	sw	zero,76(s0)
    1b2e:	8522                	mv	a0,s0
    1b30:	40b2                	lw	ra,12(sp)
    1b32:	4422                	lw	s0,8(sp)
    1b34:	4492                	lw	s1,4(sp)
    1b36:	4902                	lw	s2,0(sp)
    1b38:	0141                	addi	sp,sp,16
    1b3a:	8082                	ret
    1b3c:	06840413          	addi	s0,s0,104
    1b40:	bf71                	j	1adc <__sfp+0x26>
    1b42:	4591                	li	a1,4
    1b44:	854a                	mv	a0,s2
    1b46:	35c1                	jal	1a06 <__sfmoreglue>
    1b48:	c088                	sw	a0,0(s1)
    1b4a:	fd51                	bnez	a0,1ae6 <__sfp+0x30>
    1b4c:	47b1                	li	a5,12
    1b4e:	00f92023          	sw	a5,0(s2)
    1b52:	4401                	li	s0,0
    1b54:	bfe9                	j	1b2e <__sfp+0x78>

00001b56 <_fwalk_reent>:
_fwalk_reent():
    1b56:	7179                	addi	sp,sp,-48
    1b58:	d422                	sw	s0,40(sp)
    1b5a:	d04a                	sw	s2,32(sp)
    1b5c:	cc52                	sw	s4,24(sp)
    1b5e:	ca56                	sw	s5,20(sp)
    1b60:	c85a                	sw	s6,16(sp)
    1b62:	c65e                	sw	s7,12(sp)
    1b64:	d606                	sw	ra,44(sp)
    1b66:	d226                	sw	s1,36(sp)
    1b68:	ce4e                	sw	s3,28(sp)
    1b6a:	8a2a                	mv	s4,a0
    1b6c:	8aae                	mv	s5,a1
    1b6e:	04850413          	addi	s0,a0,72
    1b72:	4901                	li	s2,0
    1b74:	4b05                	li	s6,1
    1b76:	5bfd                	li	s7,-1
    1b78:	ec09                	bnez	s0,1b92 <_fwalk_reent+0x3c>
    1b7a:	50b2                	lw	ra,44(sp)
    1b7c:	5422                	lw	s0,40(sp)
    1b7e:	854a                	mv	a0,s2
    1b80:	5492                	lw	s1,36(sp)
    1b82:	5902                	lw	s2,32(sp)
    1b84:	49f2                	lw	s3,28(sp)
    1b86:	4a62                	lw	s4,24(sp)
    1b88:	4ad2                	lw	s5,20(sp)
    1b8a:	4b42                	lw	s6,16(sp)
    1b8c:	4bb2                	lw	s7,12(sp)
    1b8e:	6145                	addi	sp,sp,48
    1b90:	8082                	ret
    1b92:	4404                	lw	s1,8(s0)
    1b94:	00442983          	lw	s3,4(s0)
    1b98:	19fd                	addi	s3,s3,-1
    1b9a:	0009d463          	bgez	s3,1ba2 <_fwalk_reent+0x4c>
    1b9e:	4000                	lw	s0,0(s0)
    1ba0:	bfe1                	j	1b78 <_fwalk_reent+0x22>
    1ba2:	00c4d783          	lhu	a5,12(s1)
    1ba6:	00fb7b63          	bgeu	s6,a5,1bbc <_fwalk_reent+0x66>
    1baa:	00e49783          	lh	a5,14(s1)
    1bae:	01778763          	beq	a5,s7,1bbc <_fwalk_reent+0x66>
    1bb2:	85a6                	mv	a1,s1
    1bb4:	8552                	mv	a0,s4
    1bb6:	9a82                	jalr	s5
    1bb8:	00a96933          	or	s2,s2,a0
    1bbc:	06848493          	addi	s1,s1,104
    1bc0:	bfe1                	j	1b98 <_fwalk_reent+0x42>

00001bc2 <__swhatbuf_r>:
__swhatbuf_r():
    1bc2:	7119                	addi	sp,sp,-128
    1bc4:	daa6                	sw	s1,116(sp)
    1bc6:	84ae                	mv	s1,a1
    1bc8:	00e59583          	lh	a1,14(a1)
    1bcc:	dca2                	sw	s0,120(sp)
    1bce:	de86                	sw	ra,124(sp)
    1bd0:	8432                	mv	s0,a2
    1bd2:	0005dc63          	bgez	a1,1bea <__swhatbuf_r+0x28>
    1bd6:	00c4d783          	lhu	a5,12(s1)
    1bda:	0006a023          	sw	zero,0(a3)
    1bde:	0807f793          	andi	a5,a5,128
    1be2:	e39d                	bnez	a5,1c08 <__swhatbuf_r+0x46>
    1be4:	40000793          	li	a5,1024
    1be8:	a015                	j	1c0c <__swhatbuf_r+0x4a>
    1bea:	0830                	addi	a2,sp,24
    1bec:	c636                	sw	a3,12(sp)
    1bee:	2e95                	jal	1f62 <_fstat_r>
    1bf0:	46b2                	lw	a3,12(sp)
    1bf2:	fe0542e3          	bltz	a0,1bd6 <__swhatbuf_r+0x14>
    1bf6:	4772                	lw	a4,28(sp)
    1bf8:	67bd                	lui	a5,0xf
    1bfa:	8ff9                	and	a5,a5,a4
    1bfc:	7779                	lui	a4,0xffffe
    1bfe:	97ba                	add	a5,a5,a4
    1c00:	0017b793          	seqz	a5,a5
    1c04:	c29c                	sw	a5,0(a3)
    1c06:	bff9                	j	1be4 <__swhatbuf_r+0x22>
    1c08:	04000793          	li	a5,64
    1c0c:	c01c                	sw	a5,0(s0)
    1c0e:	50f6                	lw	ra,124(sp)
    1c10:	5466                	lw	s0,120(sp)
    1c12:	54d6                	lw	s1,116(sp)
    1c14:	4501                	li	a0,0
    1c16:	6109                	addi	sp,sp,128
    1c18:	8082                	ret

00001c1a <__smakebuf_r>:
__smakebuf_r():
    1c1a:	00c5d783          	lhu	a5,12(a1)
    1c1e:	1101                	addi	sp,sp,-32
    1c20:	cc22                	sw	s0,24(sp)
    1c22:	ce06                	sw	ra,28(sp)
    1c24:	ca26                	sw	s1,20(sp)
    1c26:	c84a                	sw	s2,16(sp)
    1c28:	8b89                	andi	a5,a5,2
    1c2a:	842e                	mv	s0,a1
    1c2c:	cf89                	beqz	a5,1c46 <__smakebuf_r+0x2c>
    1c2e:	04740793          	addi	a5,s0,71
    1c32:	c01c                	sw	a5,0(s0)
    1c34:	c81c                	sw	a5,16(s0)
    1c36:	4785                	li	a5,1
    1c38:	c85c                	sw	a5,20(s0)
    1c3a:	40f2                	lw	ra,28(sp)
    1c3c:	4462                	lw	s0,24(sp)
    1c3e:	44d2                	lw	s1,20(sp)
    1c40:	4942                	lw	s2,16(sp)
    1c42:	6105                	addi	sp,sp,32
    1c44:	8082                	ret
    1c46:	0074                	addi	a3,sp,12
    1c48:	0030                	addi	a2,sp,8
    1c4a:	84aa                	mv	s1,a0
    1c4c:	3f9d                	jal	1bc2 <__swhatbuf_r>
    1c4e:	45a2                	lw	a1,8(sp)
    1c50:	892a                	mv	s2,a0
    1c52:	8526                	mv	a0,s1
    1c54:	2219                	jal	1d5a <_malloc_r>
    1c56:	ed01                	bnez	a0,1c6e <__smakebuf_r+0x54>
    1c58:	00c41783          	lh	a5,12(s0)
    1c5c:	2007f713          	andi	a4,a5,512
    1c60:	ff69                	bnez	a4,1c3a <__smakebuf_r+0x20>
    1c62:	9bf1                	andi	a5,a5,-4
    1c64:	0027e793          	ori	a5,a5,2
    1c68:	00f41623          	sh	a5,12(s0)
    1c6c:	b7c9                	j	1c2e <__smakebuf_r+0x14>
    1c6e:	00000797          	auipc	a5,0x0
    1c72:	d8e78793          	addi	a5,a5,-626 # 19fc <_cleanup_r>
    1c76:	d49c                	sw	a5,40(s1)
    1c78:	00c45783          	lhu	a5,12(s0)
    1c7c:	c008                	sw	a0,0(s0)
    1c7e:	c808                	sw	a0,16(s0)
    1c80:	0807e793          	ori	a5,a5,128
    1c84:	00f41623          	sh	a5,12(s0)
    1c88:	47a2                	lw	a5,8(sp)
    1c8a:	c85c                	sw	a5,20(s0)
    1c8c:	47b2                	lw	a5,12(sp)
    1c8e:	cf89                	beqz	a5,1ca8 <__smakebuf_r+0x8e>
    1c90:	00e41583          	lh	a1,14(s0)
    1c94:	8526                	mv	a0,s1
    1c96:	2cdd                	jal	1f8c <_isatty_r>
    1c98:	c901                	beqz	a0,1ca8 <__smakebuf_r+0x8e>
    1c9a:	00c45783          	lhu	a5,12(s0)
    1c9e:	9bf1                	andi	a5,a5,-4
    1ca0:	0017e793          	ori	a5,a5,1
    1ca4:	00f41623          	sh	a5,12(s0)
    1ca8:	00c45783          	lhu	a5,12(s0)
    1cac:	00f96933          	or	s2,s2,a5
    1cb0:	01241623          	sh	s2,12(s0)
    1cb4:	b759                	j	1c3a <__smakebuf_r+0x20>

00001cb6 <_free_r>:
_free_r():
    1cb6:	c1cd                	beqz	a1,1d58 <_free_r+0xa2>
    1cb8:	ffc5a783          	lw	a5,-4(a1)
    1cbc:	1141                	addi	sp,sp,-16
    1cbe:	c422                	sw	s0,8(sp)
    1cc0:	c606                	sw	ra,12(sp)
    1cc2:	c226                	sw	s1,4(sp)
    1cc4:	ffc58413          	addi	s0,a1,-4
    1cc8:	0007d363          	bgez	a5,1cce <_free_r+0x18>
    1ccc:	943e                	add	s0,s0,a5
    1cce:	84aa                	mv	s1,a0
    1cd0:	2e01                	jal	1fe0 <__malloc_lock>
    1cd2:	83018793          	addi	a5,gp,-2000 # 20000bb8 <__malloc_free_list>
    1cd6:	439c                	lw	a5,0(a5)
    1cd8:	eb99                	bnez	a5,1cee <_free_r+0x38>
    1cda:	00042223          	sw	zero,4(s0)
    1cde:	8281a823          	sw	s0,-2000(gp) # 20000bb8 <__malloc_free_list>
    1ce2:	4422                	lw	s0,8(sp)
    1ce4:	40b2                	lw	ra,12(sp)
    1ce6:	8526                	mv	a0,s1
    1ce8:	4492                	lw	s1,4(sp)
    1cea:	0141                	addi	sp,sp,16
    1cec:	acdd                	j	1fe2 <__malloc_unlock>
    1cee:	00f47e63          	bgeu	s0,a5,1d0a <_free_r+0x54>
    1cf2:	4014                	lw	a3,0(s0)
    1cf4:	00d40733          	add	a4,s0,a3
    1cf8:	00e79663          	bne	a5,a4,1d04 <_free_r+0x4e>
    1cfc:	4398                	lw	a4,0(a5)
    1cfe:	43dc                	lw	a5,4(a5)
    1d00:	9736                	add	a4,a4,a3
    1d02:	c018                	sw	a4,0(s0)
    1d04:	c05c                	sw	a5,4(s0)
    1d06:	bfe1                	j	1cde <_free_r+0x28>
    1d08:	87ba                	mv	a5,a4
    1d0a:	43d8                	lw	a4,4(a5)
    1d0c:	c319                	beqz	a4,1d12 <_free_r+0x5c>
    1d0e:	fee47de3          	bgeu	s0,a4,1d08 <_free_r+0x52>
    1d12:	4394                	lw	a3,0(a5)
    1d14:	00d78633          	add	a2,a5,a3
    1d18:	00861f63          	bne	a2,s0,1d36 <_free_r+0x80>
    1d1c:	4010                	lw	a2,0(s0)
    1d1e:	96b2                	add	a3,a3,a2
    1d20:	c394                	sw	a3,0(a5)
    1d22:	00d78633          	add	a2,a5,a3
    1d26:	fac71ee3          	bne	a4,a2,1ce2 <_free_r+0x2c>
    1d2a:	4310                	lw	a2,0(a4)
    1d2c:	4358                	lw	a4,4(a4)
    1d2e:	96b2                	add	a3,a3,a2
    1d30:	c394                	sw	a3,0(a5)
    1d32:	c3d8                	sw	a4,4(a5)
    1d34:	b77d                	j	1ce2 <_free_r+0x2c>
    1d36:	00c47563          	bgeu	s0,a2,1d40 <_free_r+0x8a>
    1d3a:	47b1                	li	a5,12
    1d3c:	c09c                	sw	a5,0(s1)
    1d3e:	b755                	j	1ce2 <_free_r+0x2c>
    1d40:	4010                	lw	a2,0(s0)
    1d42:	00c406b3          	add	a3,s0,a2
    1d46:	00d71663          	bne	a4,a3,1d52 <_free_r+0x9c>
    1d4a:	4314                	lw	a3,0(a4)
    1d4c:	4358                	lw	a4,4(a4)
    1d4e:	96b2                	add	a3,a3,a2
    1d50:	c014                	sw	a3,0(s0)
    1d52:	c058                	sw	a4,4(s0)
    1d54:	c3c0                	sw	s0,4(a5)
    1d56:	b771                	j	1ce2 <_free_r+0x2c>
    1d58:	8082                	ret

00001d5a <_malloc_r>:
_malloc_r():
    1d5a:	1101                	addi	sp,sp,-32
    1d5c:	ca26                	sw	s1,20(sp)
    1d5e:	00358493          	addi	s1,a1,3
    1d62:	98f1                	andi	s1,s1,-4
    1d64:	ce06                	sw	ra,28(sp)
    1d66:	cc22                	sw	s0,24(sp)
    1d68:	c84a                	sw	s2,16(sp)
    1d6a:	c64e                	sw	s3,12(sp)
    1d6c:	04a1                	addi	s1,s1,8
    1d6e:	47b1                	li	a5,12
    1d70:	04f4f163          	bgeu	s1,a5,1db2 <_malloc_r+0x58>
    1d74:	44b1                	li	s1,12
    1d76:	04b4e063          	bltu	s1,a1,1db6 <_malloc_r+0x5c>
    1d7a:	892a                	mv	s2,a0
    1d7c:	2495                	jal	1fe0 <__malloc_lock>
    1d7e:	83018793          	addi	a5,gp,-2000 # 20000bb8 <__malloc_free_list>
    1d82:	4398                	lw	a4,0(a5)
    1d84:	843a                	mv	s0,a4
    1d86:	e031                	bnez	s0,1dca <_malloc_r+0x70>
    1d88:	83418793          	addi	a5,gp,-1996 # 20000bbc <__malloc_sbrk_start>
    1d8c:	439c                	lw	a5,0(a5)
    1d8e:	e791                	bnez	a5,1d9a <_malloc_r+0x40>
    1d90:	4581                	li	a1,0
    1d92:	854a                	mv	a0,s2
    1d94:	2851                	jal	1e28 <_sbrk_r>
    1d96:	82a1aa23          	sw	a0,-1996(gp) # 20000bbc <__malloc_sbrk_start>
    1d9a:	85a6                	mv	a1,s1
    1d9c:	854a                	mv	a0,s2
    1d9e:	2069                	jal	1e28 <_sbrk_r>
    1da0:	59fd                	li	s3,-1
    1da2:	07351763          	bne	a0,s3,1e10 <_malloc_r+0xb6>
    1da6:	47b1                	li	a5,12
    1da8:	00f92023          	sw	a5,0(s2)
    1dac:	854a                	mv	a0,s2
    1dae:	2c15                	jal	1fe2 <__malloc_unlock>
    1db0:	a029                	j	1dba <_malloc_r+0x60>
    1db2:	fc04d2e3          	bgez	s1,1d76 <_malloc_r+0x1c>
    1db6:	47b1                	li	a5,12
    1db8:	c11c                	sw	a5,0(a0)
    1dba:	4501                	li	a0,0
    1dbc:	40f2                	lw	ra,28(sp)
    1dbe:	4462                	lw	s0,24(sp)
    1dc0:	44d2                	lw	s1,20(sp)
    1dc2:	4942                	lw	s2,16(sp)
    1dc4:	49b2                	lw	s3,12(sp)
    1dc6:	6105                	addi	sp,sp,32
    1dc8:	8082                	ret
    1dca:	401c                	lw	a5,0(s0)
    1dcc:	8f85                	sub	a5,a5,s1
    1dce:	0207ce63          	bltz	a5,1e0a <_malloc_r+0xb0>
    1dd2:	46ad                	li	a3,11
    1dd4:	00f6f663          	bgeu	a3,a5,1de0 <_malloc_r+0x86>
    1dd8:	c01c                	sw	a5,0(s0)
    1dda:	943e                	add	s0,s0,a5
    1ddc:	c004                	sw	s1,0(s0)
    1dde:	a031                	j	1dea <_malloc_r+0x90>
    1de0:	405c                	lw	a5,4(s0)
    1de2:	02871263          	bne	a4,s0,1e06 <_malloc_r+0xac>
    1de6:	82f1a823          	sw	a5,-2000(gp) # 20000bb8 <__malloc_free_list>
    1dea:	854a                	mv	a0,s2
    1dec:	2add                	jal	1fe2 <__malloc_unlock>
    1dee:	00b40513          	addi	a0,s0,11
    1df2:	00440793          	addi	a5,s0,4
    1df6:	9961                	andi	a0,a0,-8
    1df8:	40f50733          	sub	a4,a0,a5
    1dfc:	d361                	beqz	a4,1dbc <_malloc_r+0x62>
    1dfe:	943a                	add	s0,s0,a4
    1e00:	8f89                	sub	a5,a5,a0
    1e02:	c01c                	sw	a5,0(s0)
    1e04:	bf65                	j	1dbc <_malloc_r+0x62>
    1e06:	c35c                	sw	a5,4(a4)
    1e08:	b7cd                	j	1dea <_malloc_r+0x90>
    1e0a:	8722                	mv	a4,s0
    1e0c:	4040                	lw	s0,4(s0)
    1e0e:	bfa5                	j	1d86 <_malloc_r+0x2c>
    1e10:	00350413          	addi	s0,a0,3
    1e14:	9871                	andi	s0,s0,-4
    1e16:	fc8503e3          	beq	a0,s0,1ddc <_malloc_r+0x82>
    1e1a:	40a405b3          	sub	a1,s0,a0
    1e1e:	854a                	mv	a0,s2
    1e20:	2021                	jal	1e28 <_sbrk_r>
    1e22:	fb351de3          	bne	a0,s3,1ddc <_malloc_r+0x82>
    1e26:	b741                	j	1da6 <_malloc_r+0x4c>

00001e28 <_sbrk_r>:
_sbrk_r():
    1e28:	1141                	addi	sp,sp,-16
    1e2a:	c422                	sw	s0,8(sp)
    1e2c:	842a                	mv	s0,a0
    1e2e:	852e                	mv	a0,a1
    1e30:	8201ac23          	sw	zero,-1992(gp) # 20000bc0 <errno>
    1e34:	c606                	sw	ra,12(sp)
    1e36:	818ff0ef          	jal	ra,e4e <_sbrk>
    1e3a:	57fd                	li	a5,-1
    1e3c:	00f51763          	bne	a0,a5,1e4a <_sbrk_r+0x22>
    1e40:	83818793          	addi	a5,gp,-1992 # 20000bc0 <errno>
    1e44:	439c                	lw	a5,0(a5)
    1e46:	c391                	beqz	a5,1e4a <_sbrk_r+0x22>
    1e48:	c01c                	sw	a5,0(s0)
    1e4a:	40b2                	lw	ra,12(sp)
    1e4c:	4422                	lw	s0,8(sp)
    1e4e:	0141                	addi	sp,sp,16
    1e50:	8082                	ret

00001e52 <__sread>:
__sread():
    1e52:	1141                	addi	sp,sp,-16
    1e54:	c422                	sw	s0,8(sp)
    1e56:	842e                	mv	s0,a1
    1e58:	00e59583          	lh	a1,14(a1)
    1e5c:	c606                	sw	ra,12(sp)
    1e5e:	2259                	jal	1fe4 <_read_r>
    1e60:	00054963          	bltz	a0,1e72 <__sread+0x20>
    1e64:	487c                	lw	a5,84(s0)
    1e66:	97aa                	add	a5,a5,a0
    1e68:	c87c                	sw	a5,84(s0)
    1e6a:	40b2                	lw	ra,12(sp)
    1e6c:	4422                	lw	s0,8(sp)
    1e6e:	0141                	addi	sp,sp,16
    1e70:	8082                	ret
    1e72:	00c45783          	lhu	a5,12(s0)
    1e76:	777d                	lui	a4,0xfffff
    1e78:	177d                	addi	a4,a4,-1
    1e7a:	8ff9                	and	a5,a5,a4
    1e7c:	00f41623          	sh	a5,12(s0)
    1e80:	b7ed                	j	1e6a <__sread+0x18>

00001e82 <__swrite>:
__swrite():
    1e82:	00c5d783          	lhu	a5,12(a1)
    1e86:	1101                	addi	sp,sp,-32
    1e88:	cc22                	sw	s0,24(sp)
    1e8a:	ca26                	sw	s1,20(sp)
    1e8c:	c84a                	sw	s2,16(sp)
    1e8e:	c64e                	sw	s3,12(sp)
    1e90:	ce06                	sw	ra,28(sp)
    1e92:	1007f793          	andi	a5,a5,256
    1e96:	84aa                	mv	s1,a0
    1e98:	842e                	mv	s0,a1
    1e9a:	8932                	mv	s2,a2
    1e9c:	89b6                	mv	s3,a3
    1e9e:	c791                	beqz	a5,1eaa <__swrite+0x28>
    1ea0:	00e59583          	lh	a1,14(a1)
    1ea4:	4689                	li	a3,2
    1ea6:	4601                	li	a2,0
    1ea8:	2231                	jal	1fb4 <_lseek_r>
    1eaa:	00c45783          	lhu	a5,12(s0)
    1eae:	777d                	lui	a4,0xfffff
    1eb0:	177d                	addi	a4,a4,-1
    1eb2:	8ff9                	and	a5,a5,a4
    1eb4:	00f41623          	sh	a5,12(s0)
    1eb8:	00e41583          	lh	a1,14(s0)
    1ebc:	4462                	lw	s0,24(sp)
    1ebe:	40f2                	lw	ra,28(sp)
    1ec0:	86ce                	mv	a3,s3
    1ec2:	864a                	mv	a2,s2
    1ec4:	49b2                	lw	s3,12(sp)
    1ec6:	4942                	lw	s2,16(sp)
    1ec8:	8526                	mv	a0,s1
    1eca:	44d2                	lw	s1,20(sp)
    1ecc:	6105                	addi	sp,sp,32
    1ece:	a83d                	j	1f0c <_write_r>

00001ed0 <__sseek>:
__sseek():
    1ed0:	1141                	addi	sp,sp,-16
    1ed2:	c422                	sw	s0,8(sp)
    1ed4:	842e                	mv	s0,a1
    1ed6:	00e59583          	lh	a1,14(a1)
    1eda:	c606                	sw	ra,12(sp)
    1edc:	28e1                	jal	1fb4 <_lseek_r>
    1ede:	57fd                	li	a5,-1
    1ee0:	00c45703          	lhu	a4,12(s0)
    1ee4:	00f51b63          	bne	a0,a5,1efa <__sseek+0x2a>
    1ee8:	77fd                	lui	a5,0xfffff
    1eea:	17fd                	addi	a5,a5,-1
    1eec:	8ff9                	and	a5,a5,a4
    1eee:	00f41623          	sh	a5,12(s0)
    1ef2:	40b2                	lw	ra,12(sp)
    1ef4:	4422                	lw	s0,8(sp)
    1ef6:	0141                	addi	sp,sp,16
    1ef8:	8082                	ret
    1efa:	6785                	lui	a5,0x1
    1efc:	8fd9                	or	a5,a5,a4
    1efe:	00f41623          	sh	a5,12(s0)
    1f02:	c868                	sw	a0,84(s0)
    1f04:	b7fd                	j	1ef2 <__sseek+0x22>

00001f06 <__sclose>:
__sclose():
    1f06:	00e59583          	lh	a1,14(a1)
    1f0a:	a805                	j	1f3a <_close_r>

00001f0c <_write_r>:
_write_r():
    1f0c:	1141                	addi	sp,sp,-16
    1f0e:	c422                	sw	s0,8(sp)
    1f10:	842a                	mv	s0,a0
    1f12:	852e                	mv	a0,a1
    1f14:	85b2                	mv	a1,a2
    1f16:	8636                	mv	a2,a3
    1f18:	8201ac23          	sw	zero,-1992(gp) # 20000bc0 <errno>
    1f1c:	c606                	sw	ra,12(sp)
    1f1e:	f09fe0ef          	jal	ra,e26 <_write>
    1f22:	57fd                	li	a5,-1
    1f24:	00f51763          	bne	a0,a5,1f32 <_write_r+0x26>
    1f28:	83818793          	addi	a5,gp,-1992 # 20000bc0 <errno>
    1f2c:	439c                	lw	a5,0(a5)
    1f2e:	c391                	beqz	a5,1f32 <_write_r+0x26>
    1f30:	c01c                	sw	a5,0(s0)
    1f32:	40b2                	lw	ra,12(sp)
    1f34:	4422                	lw	s0,8(sp)
    1f36:	0141                	addi	sp,sp,16
    1f38:	8082                	ret

00001f3a <_close_r>:
_close_r():
    1f3a:	1141                	addi	sp,sp,-16
    1f3c:	c422                	sw	s0,8(sp)
    1f3e:	842a                	mv	s0,a0
    1f40:	852e                	mv	a0,a1
    1f42:	8201ac23          	sw	zero,-1992(gp) # 20000bc0 <errno>
    1f46:	c606                	sw	ra,12(sp)
    1f48:	20e1                	jal	2010 <_close>
    1f4a:	57fd                	li	a5,-1
    1f4c:	00f51763          	bne	a0,a5,1f5a <_close_r+0x20>
    1f50:	83818793          	addi	a5,gp,-1992 # 20000bc0 <errno>
    1f54:	439c                	lw	a5,0(a5)
    1f56:	c391                	beqz	a5,1f5a <_close_r+0x20>
    1f58:	c01c                	sw	a5,0(s0)
    1f5a:	40b2                	lw	ra,12(sp)
    1f5c:	4422                	lw	s0,8(sp)
    1f5e:	0141                	addi	sp,sp,16
    1f60:	8082                	ret

00001f62 <_fstat_r>:
_fstat_r():
    1f62:	1141                	addi	sp,sp,-16
    1f64:	c422                	sw	s0,8(sp)
    1f66:	842a                	mv	s0,a0
    1f68:	852e                	mv	a0,a1
    1f6a:	85b2                	mv	a1,a2
    1f6c:	8201ac23          	sw	zero,-1992(gp) # 20000bc0 <errno>
    1f70:	c606                	sw	ra,12(sp)
    1f72:	206d                	jal	201c <_fstat>
    1f74:	57fd                	li	a5,-1
    1f76:	00f51763          	bne	a0,a5,1f84 <_fstat_r+0x22>
    1f7a:	83818793          	addi	a5,gp,-1992 # 20000bc0 <errno>
    1f7e:	439c                	lw	a5,0(a5)
    1f80:	c391                	beqz	a5,1f84 <_fstat_r+0x22>
    1f82:	c01c                	sw	a5,0(s0)
    1f84:	40b2                	lw	ra,12(sp)
    1f86:	4422                	lw	s0,8(sp)
    1f88:	0141                	addi	sp,sp,16
    1f8a:	8082                	ret

00001f8c <_isatty_r>:
_isatty_r():
    1f8c:	1141                	addi	sp,sp,-16
    1f8e:	c422                	sw	s0,8(sp)
    1f90:	842a                	mv	s0,a0
    1f92:	852e                	mv	a0,a1
    1f94:	8201ac23          	sw	zero,-1992(gp) # 20000bc0 <errno>
    1f98:	c606                	sw	ra,12(sp)
    1f9a:	2079                	jal	2028 <_isatty>
    1f9c:	57fd                	li	a5,-1
    1f9e:	00f51763          	bne	a0,a5,1fac <_isatty_r+0x20>
    1fa2:	83818793          	addi	a5,gp,-1992 # 20000bc0 <errno>
    1fa6:	439c                	lw	a5,0(a5)
    1fa8:	c391                	beqz	a5,1fac <_isatty_r+0x20>
    1faa:	c01c                	sw	a5,0(s0)
    1fac:	40b2                	lw	ra,12(sp)
    1fae:	4422                	lw	s0,8(sp)
    1fb0:	0141                	addi	sp,sp,16
    1fb2:	8082                	ret

00001fb4 <_lseek_r>:
_lseek_r():
    1fb4:	1141                	addi	sp,sp,-16
    1fb6:	c422                	sw	s0,8(sp)
    1fb8:	842a                	mv	s0,a0
    1fba:	852e                	mv	a0,a1
    1fbc:	85b2                	mv	a1,a2
    1fbe:	8636                	mv	a2,a3
    1fc0:	8201ac23          	sw	zero,-1992(gp) # 20000bc0 <errno>
    1fc4:	c606                	sw	ra,12(sp)
    1fc6:	20bd                	jal	2034 <_lseek>
    1fc8:	57fd                	li	a5,-1
    1fca:	00f51763          	bne	a0,a5,1fd8 <_lseek_r+0x24>
    1fce:	83818793          	addi	a5,gp,-1992 # 20000bc0 <errno>
    1fd2:	439c                	lw	a5,0(a5)
    1fd4:	c391                	beqz	a5,1fd8 <_lseek_r+0x24>
    1fd6:	c01c                	sw	a5,0(s0)
    1fd8:	40b2                	lw	ra,12(sp)
    1fda:	4422                	lw	s0,8(sp)
    1fdc:	0141                	addi	sp,sp,16
    1fde:	8082                	ret

00001fe0 <__malloc_lock>:
__malloc_lock():
    1fe0:	8082                	ret

00001fe2 <__malloc_unlock>:
__malloc_unlock():
    1fe2:	8082                	ret

00001fe4 <_read_r>:
_read_r():
    1fe4:	1141                	addi	sp,sp,-16
    1fe6:	c422                	sw	s0,8(sp)
    1fe8:	842a                	mv	s0,a0
    1fea:	852e                	mv	a0,a1
    1fec:	85b2                	mv	a1,a2
    1fee:	8636                	mv	a2,a3
    1ff0:	8201ac23          	sw	zero,-1992(gp) # 20000bc0 <errno>
    1ff4:	c606                	sw	ra,12(sp)
    1ff6:	20a9                	jal	2040 <_read>
    1ff8:	57fd                	li	a5,-1
    1ffa:	00f51763          	bne	a0,a5,2008 <_read_r+0x24>
    1ffe:	83818793          	addi	a5,gp,-1992 # 20000bc0 <errno>
    2002:	439c                	lw	a5,0(a5)
    2004:	c391                	beqz	a5,2008 <_read_r+0x24>
    2006:	c01c                	sw	a5,0(s0)
    2008:	40b2                	lw	ra,12(sp)
    200a:	4422                	lw	s0,8(sp)
    200c:	0141                	addi	sp,sp,16
    200e:	8082                	ret

00002010 <_close>:
_close():
    2010:	05800793          	li	a5,88
    2014:	82f1ac23          	sw	a5,-1992(gp) # 20000bc0 <errno>
    2018:	557d                	li	a0,-1
    201a:	8082                	ret

0000201c <_fstat>:
_fstat():
    201c:	05800793          	li	a5,88
    2020:	82f1ac23          	sw	a5,-1992(gp) # 20000bc0 <errno>
    2024:	557d                	li	a0,-1
    2026:	8082                	ret

00002028 <_isatty>:
_isatty():
    2028:	05800793          	li	a5,88
    202c:	82f1ac23          	sw	a5,-1992(gp) # 20000bc0 <errno>
    2030:	4501                	li	a0,0
    2032:	8082                	ret

00002034 <_lseek>:
_lseek():
    2034:	05800793          	li	a5,88
    2038:	82f1ac23          	sw	a5,-1992(gp) # 20000bc0 <errno>
    203c:	557d                	li	a0,-1
    203e:	8082                	ret

00002040 <_read>:
_read():
    2040:	05800793          	li	a5,88
    2044:	82f1ac23          	sw	a5,-1992(gp) # 20000bc0 <errno>
    2048:	557d                	li	a0,-1
    204a:	8082                	ret
    204c:	ec4a                	fsw	fs2,24(sp)
    204e:	ffff                	0xffff
    2050:	ec72                	fsw	ft8,24(sp)
    2052:	ffff                	0xffff
    2054:	ec9a                	fsw	ft6,88(sp)
    2056:	ffff                	0xffff
    2058:	ecb2                	fsw	fa2,88(sp)
    205a:	ffff                	0xffff
    205c:	eccc                	fsw	fa1,28(s1)
    205e:	ffff                	0xffff
    2060:	ecdc                	fsw	fa5,28(s1)
    2062:	ffff                	0xffff
    2064:	ed04                	fsw	fs1,24(a0)
    2066:	ffff                	0xffff
    2068:	ed2c                	fsw	fa1,88(a0)
    206a:	ffff                	0xffff
    206c:	ed44                	fsw	fs1,28(a0)
    206e:	ffff                	0xffff
    2070:	ed5e                	fsw	fs7,152(sp)
    2072:	ffff                	0xffff
    2074:	f312                	fsw	ft4,164(sp)
    2076:	ffff                	0xffff
    2078:	f298                	fsw	fa4,32(a3)
    207a:	ffff                	0xffff
    207c:	f1e6                	fsw	fs9,224(sp)
    207e:	ffff                	0xffff
    2080:	f1e6                	fsw	fs9,224(sp)
    2082:	ffff                	0xffff
    2084:	f1e6                	fsw	fs9,224(sp)
    2086:	ffff                	0xffff
    2088:	f264                	fsw	fs1,100(a2)
    208a:	ffff                	0xffff
    208c:	f156                	fsw	fs5,160(sp)
    208e:	ffff                	0xffff
    2090:	f1e6                	fsw	fs9,224(sp)
    2092:	ffff                	0xffff
    2094:	f26e                	fsw	fs11,36(sp)
    2096:	ffff                	0xffff
    2098:	f284                	fsw	fs1,32(a3)
    209a:	ffff                	0xffff
    209c:	f30c                	fsw	fa1,32(a4)
    209e:	ffff                	0xffff

000020a0 <MyCfgDescr>:
    20a0:	0209 0027 0101 8000 09f0 0004 0300 01ff     ..'.............
    20b0:	0002 0507 0282 0020 0700 0205 2002 0000     ...... ...... ..
    20c0:	0507 0381 0008 0001                         ........

000020c8 <MyDevDescr>:
    20c8:	0112 0110 00ff 4000 1a86 7523 0263 0200     .......@..#uc...
    20d8:	0100 0000                                   ....

000020dc <MyManuInfo>:
    20dc:	030e 0077 0063 0068 002e 0063 006e 0000     ..w.c.h...c.n...

000020ec <StrDesc>:
    20ec:	031c 0055 0053 0042 0032 002e 0030 002d     ..U.S.B.2...0.-.
    20fc:	0053 0065 0072 0069 0061 006c               S.e.r.i.a.l.

00002108 <VER_LIB>:
    2108:	4843 3835 5f78 4c42 5f45 494c 5f42 3256     CH58x_BLE_LIB_V2
    2118:	302e 0030                                   .00.

0000211c <__sf_fake_stderr>:
	...

0000213c <__sf_fake_stdin>:
	...

0000215c <__sf_fake_stdout>:
	...

0000217c <MyLangDescr>:
    217c:	0304 0409                                   ....

00002180 <Return1>:
    2180:	0031 0000                                   1...

00002184 <Return2>:
    2184:	00c3 0000                                   ....

00002188 <Return3>:
    2188:	ee9f 0000                                   ....

0000218c <_global_impure_ptr>:
    218c:	0b28 2000                                   (.. 
